******************************************************************************
                  TI ARM Linker Unix v20.2.5                   
******************************************************************************
>> Linked Mon Nov 29 10:44:55 2021

OUTPUT FILE NAME:   <zzzz_project.out>
ENTRY POINT SYMBOL: "_c_int00"  address: 000123c9


MEMORY CONFIGURATION

         name            origin    length      used     unused   attr    fill
----------------------  --------  ---------  --------  --------  ----  --------
  MAIN                  00000000   00200000  000184e2  001e7b1e  R  X
  INFO                  00200000   00008000  00000000  00008000  R  X
  SRAM_CODE             01000000   00040000  0000a69e  00035962  RW X
  SRAM_DATA             20000000   00040000  0000a69e  00035962  RW  


SEGMENT ALLOCATION MAP

run origin  load origin   length   init length attrs members
----------  ----------- ---------- ----------- ----- -------
00000000    00000000    000184e8   000184e8    r-x
  00000000    00000000    0000003c   0000003c    r-- .resetVecs
  00000040    00000040    00017632   00017632    r-x .text
  00017674    00017674    00000b1c   00000b1c    r-- .const
  00018190    00018190    00000358   00000358    r-- .cinit
20000140    20000140    00008000   00000000    r--
  20000140    20000140    00008000   00000000    r-- .priheap
20008200    20008200    00002160   00000000    rw-
  20008200    20008200    0000190a   00000000    rw- .bss
  20009b0c    20009b0c    00000854   00000000    rw- .data
2003fc00    2003fc00    00000400   00000000    rw-
  2003fc00    2003fc00    00000400   00000000    rw- .stack


SECTION ALLOCATION MAP

 output                                  attributes/
section   page    origin      length       input sections
--------  ----  ----------  ----------   ----------------
.text      0    00000040    00017632     
                  00000040    00000a4e     rtsv7M4_T_le_v4SPD16_eabi.lib : _printfi.c.obj (.text:__TI_printfi)
                  00000a8e    00000002     ti_drivers_config.obj (.text:Board_initHook)
                  00000a90    000008e8     simplelink.a : driver.obj (.text:_SlDrvMsgRead)
                  00001378    00000550     mqtt_client_app.obj (.text:mainThread)
                  000018c8    000004bc     simplelink.a : sl_socket.obj (.text:_SlSocketHandleAsync_Select)
                  00001d84    00000384                  : driver.obj (.text:_SlDrvMsgWrite)
                  00002108    00000320     network_if.obj (.text:Network_IF_ConnectAP)
                  00002428    0000030c     simplelink.a : driver.obj (.text:_SlDrvReleasePoolObj)
                  00002734    000002d8     drivers_msp432p4x1xi.aem4f : UARTMSP432.oem4f (.text:UARTMSP432_open)
                  00002a0c    000002d8     simplelink.a : driver.obj (.text:_SlDrvRxHdrRead)
                  00002ce4    000002d4     drivers_msp432p4x1xi.aem4f : PowerMSP432.oem4f (.text:Power_sleep)
                  00002fb8    000002d0     simplelink.a : driver.obj (.text:_SlDrvWaitForPoolObj)
                  00003288    000002b8     mqtt_if.obj (.text:MQTTAppThread)
                  00003540    000002b0     simplelink.a : wlan.obj (.text:sl_WlanProfileAdd)
                  000037f0    000002ac                  : sl_socket.obj (.text:sl_Select)
                  00003a9c    000002a0     rtsv7M4_T_le_v4SPD16_eabi.lib : mktime.c.obj (.text:__mktime32)
                  00003d3c    00000290     mqtt_client_app.obj (.text:WifiInit)
                  00003fcc    0000028d     network_if.obj (.text:SimpleLinkSockEventHandler)
                  00004259    00000001     --HOLE-- [fill = 0]
                  0000425a    00000002     simplelink.a : cc_pal.obj (.text:NwpMaskInterrupt)
                  0000425c    0000028c     drivers_msp432p4x1xi.aem4f : SPIMSP432DMA.oem4f (.text:SPIMSP432DMA_open)
                  000044e8    0000028a     msp432p4xx_driverlib.lib : pcm.o (.text:__PCM_setPowerStateAdvanced)
                  00004772    00000002     simplelink.a : cc_pal.obj (.text:NwpUnMaskInterrupt)
                  00004774    00000284     drivers_msp432p4x1xi.aem4f : PowerMSP432.oem4f (.text:initPerfControl)
                  000049f8    0000027c     simplelink.a : wlan.obj (.text:sl_WlanConnect)
                  00004c74    00000270     rtsv7M4_T_le_v4SPD16_eabi.lib : _printfi.c.obj (.text:_pconv_a)
                  00004ee4    00000264     network_if.obj (.text:Network_IF_InitDriver)
                  00005148    0000025c     simplelink.a : driver.obj (.text:_SlDrvDataReadOp)
                  000053a4    0000024c     mqtt_if.obj (.text:MQTT_IF_Connect)
                  000055f0    00000238     mqtt_client_app.obj (.text:DisplayAppBanner)
                  00005828    0000022c     mqtt_client_app.obj (.text:MQTT_EventCallback)
                  00005a54    00000218     simplelink.a : driver.obj (.text:_SlDrvDataWriteOp)
                  00005c6c    000001f4                  : driver.obj (.text:_SlDrvMsgReadCmdCtx)
                  00005e60    000001f2                  : netapp.obj (.text:_SlNetAppEventHandler)
                  00006052    00000002     dpl_msp432p4x1xi.aem4f : PowerMSP432_tirtos.oem4f (.text:PowerMSP432_initPolicy)
                  00006054    000001e8     mqtt_if.obj (.text:MQTT_IF_Subscribe)
                  0000623c    000001e1     network_if.obj (.text:SimpleLinkFatalErrorEventHandler)
                  0000641d    00000001     --HOLE-- [fill = 0]
                  0000641e    00000002     drivers_msp432p4x1xi.aem4f : TimerMSP432.oem4f (.text:TimerMSP432_init)
                  00006420    000001dc     simplelink.a : device.obj (.text:sl_Stop)
                  000065fc    000001d8     network_if.obj (.text:SimpleLinkWlanEventHandler)
                  000067d4    000001d0     rtsv7M4_T_le_v4SPD16_eabi.lib : _printfi.c.obj (.text:_pconv_g)
                  000069a4    000001b6                                   : fd_add_t2.asm.obj (.text)
                  00006b5a    00000006     drivers_msp432p4x1xi.aem4f : SPIMSP432DMA.oem4f (.text:SPIMSP432DMA_control)
                  00006b60    000001b0     sysbios.aem4f : BIOS.obj (.text:mq_open)
                  00006d10    000001a8     simplelink.a : sl_socket.obj (.text:sl_Accept)
                  00006eb8    000001a4                  : driver.obj (.text:_SlDrvDriverCBInit)
                  0000705c    000001a4                  : driver.obj (.text:_SlDrvReleaseAllActivePendingPoolObj)
                  00007200    000001a0     mqtt_if.obj (.text:MQTT_IF_Init)
                  000073a0    00000198     slnetsock_release.a : slnetsock.oem4f (.text:SlNetSock_select)
                  00007538    00000190     simplelink.a : sl_socket.obj (.text:_SlDrvRegisterForSelectAsync)
                  000076c8    00000188     dht11.obj (.text:read_dht11)
                  00007850    00000184     simplelink.a : driver.obj (.text:_SlDrvFindAndSetActiveObj)
                  000079d4    00000180     network_if.obj (.text:SimpleLinkNetAppEventHandler)
                  00007b54    00000178     simplelink.a : sl_socket.obj (.text:sl_Connect)
                  00007ccc    00000170     drivers_msp432p4x1xi.aem4f : GPIOMSP432.oem4f (.text:GPIO_setConfig)
                  00007e3c    00000170     simplelink.a : netapp.obj (.text:sl_NetAppDnsGetHostByName)
                  00007fac    0000016c     mqtt_if.obj (.text:MQTT_IF_Deinit)
                  00008118    00000160     mqtt_release.a : mqtt_net_func.oem4f (.text:createSocket)
                  00008278    0000015c     msp432p4xx_driverlib.lib : pcm.o (.text:__PCM_setPowerModeAdvanced)
                  000083d4    00000154     mqtt_release.a : mqttclient.oem4f (.text:MQTTClient_connect)
                  00008528    00000154     simplelink.a : sl_socket.obj (.text:sl_RecvFrom)
                  0000867c    0000014c     drivers_msp432p4x1xi.aem4f : TimerMSP432.oem4f (.text:TimerMSP432_open)
                  000087c8    00000148     simplelink.a : sl_socket.obj (.text:_SlDrvGetNextTimeoutValue)
                  00008910    00000148                  : sl_socket.obj (.text:sl_StartTLS)
                  00008a58    00000140                  : driver.obj (.text:_SlDrvMsgReadSpawnCtx)
                  00008b98    0000013c     rtsv7M4_T_le_v4SPD16_eabi.lib : _printfi.c.obj (.text:_pconv_e)
                  00008cd4    00000138     simplelink.a : driver.obj (.text:_SlSpawnMsgListInsert)
                  00008e0c    00000136     rtsv7M4_T_le_v4SPD16_eabi.lib : fd_div_t2.asm.obj (.text)
                  00008f42    00000002     drivers_msp432p4x1xi.aem4f : UARTMSP432.oem4f (.text:UARTMSP432_init)
                  00008f44    00000134     simplelink.a : sl_socket.obj (.text:_SlSocketHandleAsync_StartTLS)
                  00009078    00000130     drivers_msp432p4x1xi.aem4f : UDMAMSP432.oem4f (.text:setupInterrupt)
                  000091a8    0000012c     sysbios.aem4f : BIOS.obj (.text:ti_sysbios_knl_Semaphore_pend__E)
                  000092d4    00000128     simplelink.a : driver.obj (.text:_SlDrvClassifyRxMsg)
                  000093fc    00000124     rtsv7M4_T_le_v4SPD16_eabi.lib : _printfi.c.obj (.text:fcvt)
                  00009520    00000124     simplelink.a : fs.obj (.text:sl_FsOpen)
                  00009644    00000120     drivers_msp432p4x1xi.aem4f : SPIMSP432DMA.oem4f (.text:SPIMSP432DMA_transfer)
                  00009764    00000120     simplelink.a : driver.obj (.text:_SlDrvAsyncEventGenericHandler)
                  00009884    0000011c     msp432p4xx_driverlib.lib : uart.o (.text:UART_initModule)
                  000099a0    0000011c     simplelink.a : device.obj (.text:sl_Start)
                  00009abc    00000118                  : netapp.obj (.text:_SlNetAppHandleAsync_DnsGetHostByService)
                  00009bd4    00000112     mqtt_release.a : mqtt_common.oem4f (.text:MQTT_PacketRecv)
                  00009ce6    00000002     rtsv7M4_T_le_v4SPD16_eabi.lib : _lock.c.obj (.text:_nop)
                  00009ce8    00000110                                   : s_scalbn.c.obj (.text:scalbn)
                  00009df8    00000110                                   : strtoul.c.obj (.text:strtoul)
                  00009f08    00000108     slnetsock_release.a : slnetutils.oem4f (.text:SlNetUtil_str2BinIpV6)
                  0000a010    00000108     msp432p4xx_driverlib.lib : pcm.o (.text:__PCM_setCoreVoltageLevelAdvanced)
                  0000a118    00000108     sysbios.aem4f : BIOS.obj (.text:ti_sysbios_knl_Task_postInit__I)
                  0000a220    00000108                   : BIOS.obj (.text:xdc_runtime_Startup_startMods__I)
                  0000a328    00000104     simplelink.a : device.obj (.text:_SlDeviceEventHandler)
                  0000a42c    00000104                  : driver.obj (.text:_SlDrvCmdOp)
                  0000a530    00000104     sysbios.aem4f : BIOS.obj (.text:ti_sysbios_knl_Task_Instance_finalize__E)
                  0000a634    00000100     mqtt_if.obj (.text:MQTTClientCallback)
                  0000a734    00000100     simplelink.a : driver.obj (.text:_SlDrvObjGlobalLockWaitForever)
                  0000a834    00000100                  : fs.obj (.text:sl_FsWrite)
                  0000a934    000000fc     drivers_msp432p4x1xi.aem4f : SPIMSP432DMA.oem4f (.text:SPIMSP432DMA_transferCancel)
                  0000aa30    000000fc                                : SPIMSP432DMA.oem4f (.text:configDMA)
                  0000ab2c    000000fc     rtsv7M4_T_le_v4SPD16_eabi.lib : fd_mul_t2.asm.obj (.text)
                  0000ac28    000000f8     mqtt_release.a : mqttclient.oem4f (.text:MqttClientCtxCreate)
                  0000ad20    000000f8     slnetifwifi.a : slnetifwifi.obj (.text:SlNetIfWifi_loadSecObj)
                  0000ae18    000000f8     simplelink.a : sl_socket.obj (.text:sl_Close)
                  0000af10    000000f8     mqtt_release.a : client_core.oem4f (.text:utf8ArraySend)
                  0000b008    000000f6                    : mqtt_net_func.oem4f (.text:MQTTNet_commOpen)
                  0000b0fe    00000002     rtsv7M4_T_le_v4SPD16_eabi.lib : div0.asm.obj (.text)
                  0000b100    000000f4     simplelink.a : sl_socket.obj (.text:sl_SendTo)
                  0000b1f4    000000f0     msp432p4xx_driverlib.lib : dma.o (.text:DMA_setChannelTransfer)
                  0000b2e4    00000004     release_pem4f.oem4f (.text:.bootCodeSection:ti_sysbios_family_arm_msp432_init_Boot_init__I)
                  0000b2e8    000000f0     sysbios.aem4f : BIOS.obj (.text:pthread_create)
                  0000b3d8    000000f0                   : m3_Hwi_asm.obj (.text:ti_sysbios_family_arm_m3_Hwi_dispatch__I)
                  0000b4c8    000000e4     msp432p4xx_driverlib.lib : cs.o (.text:CS_startHFXTWithTimeout)
                  0000b5ac    000000e4     slnetsock_release.a : slnetif.oem4f (.text:SlNetIf_add)
                  0000b690    000000e0     msp432p4xx_driverlib.lib : cs.o (.text:CS_startLFXTWithTimeout)
                  0000b770    000000e0     sysbios.aem4f : BIOS.obj (.text:ti_sysbios_knl_Task_Instance_init__E)
                  0000b850    000000de     mqtt_release.a : client_core.oem4f (.text:connectMsgSend)
                  0000b92e    00000002     release_pem4f.oem4f (.text:ti_sysbios_BIOS_nullFunc__I)
                  0000b930    000000dc     drivers_msp432p4x1xi.aem4f : UARTMSP432.oem4f (.text:UARTMSP432_readPolling)
                  0000ba0c    000000dc                                : UDMAMSP432.oem4f (.text:UDMAMSP432_close)
                  0000bae8    000000dc     msp432p4xx_driverlib.lib : cs.o (.text:_CSGetHFXTFrequency)
                  0000bbc4    000000d8     uart_term.obj (.text:GetCmd)
                  0000bc9c    000000d8     simplelink.a : device.obj (.text:_SlDeviceHandleAsync_InitComplete)
                  0000bd74    000000d8                  : driver.obj (.text:_SlDrvWaitForInternalAsyncEvent)
                  0000be4c    000000d8                  : netapp.obj (.text:_SlNetAppHandleAsync_NetAppReceive)
                  0000bf24    00000004     msp432p4xx_driverlib.lib : cpu.o (.text:CPU_wfi)
                  0000bf28    000000d8     sysbios.aem4f : BIOS.obj (.text:ti_sysbios_knl_Mailbox_Instance_init__E)
                  0000c000    000000d0     simplelink.a : driver.obj (.text:_SlDrvDriverCBDeinit)
                  0000c0d0    000000d0                  : driver.obj (.text:_SlDrvRemoveFromList)
                  0000c1a0    000000d0     sysbios.aem4f : BIOS.obj (.text:ti_sysbios_heaps_HeapMem_alloc__E)
                  0000c270    000000cc     mqtt_release.a : mqttclient.oem4f (.text:processNotifyAckCB)
                  0000c33c    000000c4     drivers_msp432p4x1xi.aem4f : UARTMSP432.oem4f (.text:UARTMSP432_hwiIntFxn)
                  0000c400    000000c4     sysbios.aem4f : BIOS.obj (.text:clock_gettime)
                  0000c4c4    000000c0     mqtt_if.obj (.text:MQTT_IF_Disconnect)
                  0000c584    000000c0     mqtt_release.a : mqttclient.oem4f (.text:MqttClientSub)
                  0000c644    000000c0     drivers_msp432p4x1xi.aem4f : UARTMSP432.oem4f (.text:UARTMSP432_control)
                  0000c704    000000c0     simplelink.a : netcfg.obj (.text:sl_NetCfgGet)
                  0000c7c4    000000bc     drivers_msp432p4x1xi.aem4f : TimerMSP432.oem4f (.text:TimerMSP432_setPeriod)
                  0000c880    000000bc                                : TimerMSP432.oem4f (.text:TimerMSP432_start)
                  0000c93c    000000bc     simplelink.a : netapp.obj (.text:_SlNetAppSendResponse)
                  0000c9f8    000000bc     mqtt_release.a : client_core.oem4f (.text:clCtxConnStateTryLocked)
                  0000cab4    000000bc     simplelink.a : sl_socket.obj (.text:sl_Send)
                  0000cb70    000000bc     sysbios.aem4f : BIOS.obj (.text:ti_sysbios_knl_Task_sleep__E)
                  0000cc2c    000000b8     simplelink.a : netapp.obj (.text:_SlNetAppHandleAsync_DnsGetHostByName)
                  0000cce4    000000b8                  : netapp.obj (.text:_SlNetAppHandleAsync_PingResponse)
                  0000cd9c    000000b8     dht11.obj (.text:dht11_init)
                  0000ce54    000000b8     drivers_msp432p4x1xi.aem4f : UARTMSP432.oem4f (.text:initHw)
                  0000cf0c    000000b8     mqtt_client_app.obj (.text:pushButtonConnectionHandler)
                  0000cfc4    000000b8     drivers_msp432p4x1xi.aem4f : UARTMSP432.oem4f (.text:readTaskCallback)
                  0000d07c    000000b8     simplelink.a : device.obj (.text:sl_DeviceGet)
                  0000d134    000000b8                  : wlan.obj (.text:sl_WlanGet)
                  0000d1ec    00000004     dpl_msp432p4x1xi.aem4f : ClockP_tirtos.oem4f (.text:ClockP_setTimeout)
                  0000d1f0    000000b8     sysbios.aem4f : BIOS.obj (.text:ti_sysbios_family_arm_m3_Hwi_Instance_init__E)
                  0000d2a8    000000b4     mqtt_release.a : mqttclient.oem4f (.text:MqttClient_send)
                  0000d35c    000000b4     drivers_msp432p4x1xi.aem4f : UARTMSP432.oem4f (.text:UARTMSP432_writePolling)
                  0000d410    000000b4     simplelink.a : driver.obj (.text:_SlDrvHandleFatalError)
                  0000d4c4    000000b4                  : netutil.obj (.text:_SlNetUtilHandleAsync_Cmd)
                  0000d578    000000b4                  : sl_socket.obj (.text:sl_GetSockOpt)
                  0000d62c    000000b4                  : cc_pal.obj (.text:spi_Read)
                  0000d6e0    000000b4                  : cc_pal.obj (.text:spi_Write)
                  0000d794    000000b1     rtsv7M4_T_le_v4SPD16_eabi.lib : _printfi.c.obj (.text:_ltostr)
                  0000d845    00000001     --HOLE-- [fill = 0]
                  0000d846    000000b0     msp432p4xx_driverlib.lib : spi.o (.text:SPI_initMaster)
                  0000d8f6    00000002     --HOLE-- [fill = 0]
                  0000d8f8    000000b0     slnetifwifi.a : slnetifwifi.obj (.text:SlNetIfWifi_getSockOpt)
                  0000d9a8    000000b0     sysbios.aem4f : BIOS.obj (.text:ti_sysbios_knl_Clock_workFuncDynamic__E)
                  0000da58    000000ae     slnetifwifi.a : slnetifwifi.obj (.text:matchModeByRole)
                  0000db06    00000002     --HOLE-- [fill = 0]
                  0000db08    000000ac     drivers_msp432p4x1xi.aem4f : GPIOMSP432.oem4f (.text:GPIO_init)
                  0000dbb4    000000ac     simplelink.a : sl_socket.obj (.text:_SlSocketHandleAsync_Close)
                  0000dc60    000000ac                  : sl_socket.obj (.text:_SlSocketHandleAsync_Connect)
                  0000dd0c    000000ac     mqtt_client_app.obj (.text:controlTopicCB)
                  0000ddb8    000000aa     sysbios.aem4f : BIOS.obj (.text:xdc_runtime_Core_createObject__I)
                  0000de62    00000002     --HOLE-- [fill = 0]
                  0000de64    000000a8     network_if.obj (.text:Network_IF_IpConfigGet)
                  0000df0c    000000a8     drivers_msp432p4x1xi.aem4f : UARTMSP432.oem4f (.text:readTaskBlocking)
                  0000dfb4    000000a8     simplelink.a : fs.obj (.text:sl_FsClose)
                  0000e05c    00000004     dpl_msp432p4x1xi.aem4f : ClockP_tirtos.oem4f (.text:ClockP_start)
                  0000e060    000000a8     sysbios.aem4f : BIOS.obj (.text:ti_sysbios_family_arm_msp432_Timer_periodicStub__E)
                  0000e108    000000a6     uart_term.obj (.text:Report)
                  0000e1ae    000000a6     simplelink.a : driver.obj (.text:_SlDrvIsTimeoutExpired)
                  0000e254    000000a4     mqtt_release.a : mqttclient.oem4f (.text:MQTTClient_create)
                  0000e2f8    000000a4                    : mqttclient.oem4f (.text:MQTTClient_delete)
                  0000e39c    000000a4                    : mqttclient.oem4f (.text:MqttClientConfig)
                  0000e440    000000a4     drivers_msp432p4x1xi.aem4f : TimerMSP432.oem4f (.text:initTimerHardware)
                  0000e4e4    000000a4     simplelink.a : sl_socket.obj (.text:sl_Bind)
                  0000e588    000000a4     sysbios.aem4f : BIOS.obj (.text:ti_sysbios_knl_Task_setPri__E)
                  0000e62c    000000a2     drivers_msp432p4x1xi.aem4f : UARTMSP432.oem4f (.text:UARTMSP432_write)
                  0000e6ce    00000002     --HOLE-- [fill = 0]
                  0000e6d0    000000a0     simplelink.a : fs.obj (.text:FsGetCreateFsMode)
                  0000e770    000000a0                  : sl_socket.obj (.text:_SlDrvUnRegisterForSelectAsync)
                  0000e810    000000a0                  : driver.obj (.text:_SlSpawnMsgListProcess)
                  0000e8b0    000000a0     auto_init.aem4f : auto_init.oem4f (.text)
                  0000e950    000000a0     drivers_msp432p4x1xi.aem4f : UARTMSP432.oem4f (.text:readIsrTextCallback)
                  0000e9f0    0000009c     mqtt_release.a : client_core.oem4f (.text:MQTTClientCore_initLib)
                  0000ea8c    0000009c                    : client_core.oem4f (.text:MQTTClientCore_sendPubMsg)
                  0000eb28    0000009c                    : client_core.oem4f (.text:_msgDispatch)
                  0000ebc4    0000009c     rtsv7M4_T_le_v4SPD16_eabi.lib : memcpy_t2.asm.obj (.text)
                  0000ec60    0000009c     drivers_msp432p4x1xi.aem4f : TimerMSP432.oem4f (.text:setT32TickCount)
                  0000ecfc    0000009c                                : TimerMSP432.oem4f (.text:setTATickCount)
                  0000ed98    0000009a     mqtt_release.a : client_core.oem4f (.text:procPubMsgRx)
                  0000ee32    00000002     --HOLE-- [fill = 0]
                  0000ee34    00000098     mqtt_if.obj (.text:MQTT_IF_Publish)
                  0000eecc    00000098     uart_term.obj (.text:TrimSpace)
                  0000ef64    00000098     drivers_msp432p4x1xi.aem4f : UARTMSP432.oem4f (.text:UARTMSP432_close)
                  0000effc    00000096     mqtt_release.a : mqtt_net_func.oem4f (.text:MQTTNet_tcpSelect)
                  0000f092    00000096     rtsv7M4_T_le_v4SPD16_eabi.lib : ull_div_t2.asm.obj (.text)
                  0000f128    00000094     simplelink.a : cc_pal.obj (.text:Semaphore_pend_handle)
                  0000f1bc    00000094     drivers_msp432p4x1xi.aem4f : UDMAMSP432.oem4f (.text:UDMAMSP432_init)
                  0000f250    00000094                                : UDMAMSP432.oem4f (.text:UDMAMSP432_open)
                  0000f2e4    00000004     dpl_msp432p4x1xi.aem4f : ClockP_tirtos.oem4f (.text:ClockP_stop)
                  0000f2e8    00000094     sysbios.aem4f : BIOS.obj (.text:_pthread_removeThreadKeys)
                  0000f37c    00000004     dpl_msp432p4x1xi.aem4f : HwiP_tirtos.oem4f (.text:HwiP_clearInterrupt)
                  0000f380    00000094     sysbios.aem4f : BIOS.obj (.text:ti_sysbios_family_arm_m3_Hwi_initNVIC__E)
                  0000f414    00000004     dpl_msp432p4x1xi.aem4f : HwiP_tirtos.oem4f (.text:HwiP_disable)
                  0000f418    00000094     sysbios.aem4f : BIOS.obj (.text:ti_sysbios_knl_Task_exit__E)
                  0000f4ac    00000092     slnetsock_release.a : slnetsock.oem4f (.text:SlNetSock_create)
                  0000f53e    00000092     drivers_msp432p4x1xi.aem4f : UARTMSP432.oem4f (.text:writeData)
                  0000f5d0    00000090     slnetsock_release.a : slnetsock.oem4f (.text:SlNetSock_getVirtualSdConf)
                  0000f660    00000090     simplelink.a : device.obj (.text:_SlDeviceHandleAsync_Stop)
                  0000f6f0    00000090                  : sl_socket.obj (.text:_SlSocketHandleAsync_Accept)
                  0000f780    00000090     mqtt_release.a : mqttclient.oem4f (.text:processPublishRxCB)
                  0000f810    00000090     sysbios.aem4f : BIOS.obj (.text:ti_sysbios_knl_Task_Module_startup__E)
                  0000f8a0    0000008c     mqtt_release.a : client_core.oem4f (.text:MQTTClientCore_createCtx)
                  0000f92c    0000008c     drivers_msp432p4x1xi.aem4f : PowerMSP432.oem4f (.text:Power_init)
                  0000f9b8    0000008c     slnetsock_release.a : slnetsock.oem4f (.text:SlNetSock_accept)
                  0000fa44    0000008c     simplelink.a : driver.obj (.text:_SlDrvDriverIsApiAllowed)
                  0000fad0    0000008c                  : driver.obj (.text:_SlDrvProtectAsyncRespSetting)
                  0000fb5c    0000008c     drivers_msp432p4x1xi.aem4f : UARTMSP432.oem4f (.text:readIsrTextBlocking)
                  0000fbe8    0000008c     simplelink.a : sl_socket.obj (.text:sl_Recv)
                  0000fc74    0000008c     sysbios.aem4f : m3_TaskSupport_asm.obj (.text:ti_sysbios_family_arm_m3_TaskSupport_buildTaskStack)
                  0000fd00    0000008c                   : BIOS.obj (.text:xdc_runtime_Memory_alloc__E)
                  0000fd8c    00000088     mqtt_release.a : client_core.oem4f (.text:procConnackRx)
                  0000fe14    00000088     simplelink.a : eventreg.obj (.text:sl_UnregisterLibsEventHandler)
                  0000fe9c    00000004     dpl_msp432p4x1xi.aem4f : HwiP_tirtos.oem4f (.text:HwiP_disableInterrupt)
                  0000fea0    00000088     sysbios.aem4f : BIOS.obj (.text:ti_sysbios_knl_Mailbox_post__E)
                  0000ff28    00000088     mqtt_release.a : client_core.oem4f (.text:wrConnectPayload)
                  0000ffb0    00000086     rtsv7M4_T_le_v4SPD16_eabi.lib : fd_cmp_t2.asm.obj (.text:__aeabi_cdcmple)
                  00010036    00000086                                   : fd_cmp_t2.asm.obj (.text:__aeabi_cdrcmple)
                  000100bc    00000086     drivers_msp432p4x1xi.aem4f : SPIMSP432DMA.oem4f (.text:initHw)
                  00010142    00000006                                : TimerMSP432.oem4f (.text:TimerMSP432_control)
                  00010148    00000086     sysbios.aem4f : BIOS.obj (.text:xdc_runtime_Core_constructObject__I)
                  000101ce    00000084     mqtt_if.obj (.text:MQTTHelperTopicMatching)
                  00010252    00000002     --HOLE-- [fill = 0]
                  00010254    00000084     msp432p4xx_driverlib.lib : pcm.o (.text:PCM_gotoLPM3)
                  000102d8    00000084     slnetifwifi.a : slnetifwifi.obj (.text:SlNetIfWifi_sockstartSec)
                  0001035c    00000084     slnetsock_release.a : slnetutils.oem4f (.text:SlNetUtil_getHostByName)
                  000103e0    00000084     drivers_msp432p4x1xi.aem4f : TimerMSP432.oem4f (.text:TimerMSP432_stop)
                  00010464    00000084     mqtt_release.a : client_core.oem4f (.text:mqpSetupProcCtxDataRecv)
                  000104e8    00000084     drivers_msp432p4x1xi.aem4f : PowerMSP432.oem4f (.text:restartHFXT)
                  0001056c    00000084     simplelink.a : sl_socket.obj (.text:sl_SetSockOpt)
                  000105f0    00000084     sysbios.aem4f : BIOS.obj (.text:ti_sysbios_family_arm_m3_Hwi_postInit__I)
                  00010674    00000004     dpl_msp432p4x1xi.aem4f : HwiP_tirtos.oem4f (.text:HwiP_enableInterrupt)
                  00010678    00000084     sysbios.aem4f : BIOS.obj (.text:ti_sysbios_heaps_HeapMem_free__E)
                  000106fc    00000080     mqtt_release.a : client_core.oem4f (.text:clCtxPartSend)
                  0001077c    0000007c     mqtt_if.obj (.text:MQTTContextThread)
                  000107f8    0000007c     sysbios.aem4f : BIOS.obj (.text:_pthread_abstime2ticks)
                  00010874    0000007c     mqtt_release.a : client_core.oem4f (.text:procCtxDataRecv)
                  000108f0    0000007a     rtsv7M4_T_le_v4SPD16_eabi.lib : memset_t2.asm.obj (.text)
                  0001096a    00000002     --HOLE-- [fill = 0]
                  0001096c    00000078     mqtt_release.a : mqtt_net_func.oem4f (.text:MQTTNet_recvFrom)
                  000109e4    00000078     drivers_msp432p4x1xi.aem4f : TimerMSP432.oem4f (.text:TimerMSP432_allocateTimerResource)
                  00010a5c    00000078     simplelink.a : sl_socket.obj (.text:sl_Socket)
                  00010ad4    00000077     mqtt_client_app.obj (.text:formatdata)
                  00010b4b    00000001     --HOLE-- [fill = 0]
                  00010b4c    00000074     mqtt_release.a : mqtt_net_func.oem4f (.text:MQTTNet_tcpAccept)
                  00010bc0    00000074     slnetsock_release.a : slnetsock.oem4f (.text:SlNetSock_AllocVirtualSocket)
                  00010c34    00000074     mqtt_release.a : client_core.oem4f (.text:groupCtxsRxPrep)
                  00010ca8    00000074     sysbios.aem4f : BIOS.obj (.text:ti_sysbios_knl_Clock_walkQueueDynamic__E)
                  00010d1c    00000004     drivers_msp432p4x1xi.aem4f : SPIMSP432DMA.oem4f (.text:SPIMSP432DMA_init)
                  00010d20    00000074     sysbios.aem4f : BIOS.obj (.text:ti_sysbios_knl_Mailbox_pend__E)
                  00010d94    00000072     mqtt_release.a : mqtt_common.oem4f (.text:MQTT_packetProcPubRx)
                  00010e06    00000002     --HOLE-- [fill = 0]
                  00010e08    00000070     slnetsock_release.a : slnetsock.oem4f (.text:SlNetSock_secAttribSet)
                  00010e78    00000070     simplelink.a : driver.obj (.text:_SlDrvCmdSend_noLock)
                  00010ee8    00000070     sysbios.aem4f : BIOS.obj (.text:acquireMutexNone$47)
                  00010f58    00000070                   : BIOS.obj (.text:ti_sysbios_heaps_HeapMem_initPrimary__I)
                  00010fc8    00000070                   : BIOS.obj (.text:ti_sysbios_knl_Mailbox_Instance_finalize__E)
                  00011038    0000006e     rtsv7M4_T_le_v4SPD16_eabi.lib : _printfi.c.obj (.text:_mcpy)
                  000110a6    0000006e                                   : ll_div_t2.asm.obj (.text)
                  00011114    0000006c     mqtt_release.a : mqttclient.oem4f (.text:MQTTClient_run)
                  00011180    0000006c     simplelink.a : cc_pal.obj (.text:NwpRegisterInterruptHandler)
                  000111ec    0000006c     slnetsock_release.a : slnetutils.oem4f (.text:SlNetUtil_str2BinIpV4)
                  00011258    0000006c     simplelink.a : device.obj (.text:_SlDeviceHandleResetRequestInternally)
                  000112c4    0000006c                  : sl_socket.obj (.text:_SlDrvOpenCtrlSocket)
                  00011330    0000006c                  : netapp.obj (.text:_SlNetAppSendTokenValue)
                  0001139c    00000004     dpl_msp432p4x1xi.aem4f : SemaphoreP_tirtos.oem4f (.text:SemaphoreP_post)
                  000113a0    0000006c     sysbios.aem4f : BIOS.obj (.text:ti_sysbios_family_arm_msp432_Seconds_get__E)
                  0001140c    00000004     slnetsock_release.a : slnetif.oem4f (.text:SlNetIf_init)
                  00011410    0000006c     sysbios.aem4f : BIOS.obj (.text:ti_sysbios_knl_Swi_restoreHwi__E)
                  0001147c    0000006c     mqtt_client_app.obj (.text:waterButtonHandler)
                  000114e8    0000006a     mqtt_release.a : mqtt_net_func.oem4f (.text:MQTTNet_sendTo)
                  00011552    0000006a     drivers_msp432p4x1xi.aem4f : UARTMSP432.oem4f (.text:UARTMSP432_writeCancel)
                  000115bc    00000068                                : GPIOMSP432.oem4f (.text:GPIO_hwiIntFxn)
                  00011624    00000068     mqtt_release.a : mqtt_common.oem4f (.text:MQTT_qos2PubCqUnlog)
                  0001168c    00000068     drivers_msp432p4x1xi.aem4f : PowerMSP432.oem4f (.text:PowerMSP432_getFreqs)
                  000116f4    00000068     simplelink.a : driver.obj (.text:_SlSpawnMsgListGetCount)
                  0001175c    00000068     rtsv7M4_T_le_v4SPD16_eabi.lib : copy_decompress_lzss.c.obj (.text:decompress:lzss:__TI_decompress_lzss)
                  000117c4    00000068     main_tirtos.obj (.text:main)
                  0001182c    00000004     slnetsock_release.a : slnetutils.oem4f (.text:SlNetUtil_init)
                  00011830    00000068     sysbios.aem4f : BIOS.obj (.text:ti_sysbios_knl_Clock_startI__E)
                  00011898    00000066                   : BIOS.obj (.text:xdc_runtime_Core_deleteObject__I)
                  000118fe    00000064     mqtt_release.a : mqtt_common.oem4f (.text:MQTT_packetPubAppendTopic)
                  00011962    00000064     drivers_msp432p4x1xi.aem4f : SPIMSP432DMA.oem4f (.text:SPIMSP432DMA_close)
                  000119c6    00000064     mqtt_release.a : client_core.oem4f (.text:clientReset)
                  00011a2a    00000002     --HOLE-- [fill = 0]
                  00011a2c    00000064                    : client_core.oem4f (.text:doNetClose)
                  00011a90    00000064     rtsv7M4_T_le_v4SPD16_eabi.lib : s_frexp.c.obj (.text:frexp)
                  00011af4    00000004     mqtt_release.a : mqttclient.oem4f (.text:mutexLockup)
                  00011af8    00000064     sysbios.aem4f : BIOS.obj (.text:ti_sysbios_family_arm_m3_Hwi_dispatchC__I)
                  00011b5c    00000060     drivers_msp432p4x1xi.aem4f : GPIOMSP432.oem4f (.text:GPIO_setCallback)
                  00011bbc    00000060     slnetsock_release.a : slnetsock.oem4f (.text:SlNetSock_recvFrom)
                  00011c1c    00000060                         : slnetsock.oem4f (.text:SlNetSock_sendTo)
                  00011c7c    00000004     mqtt_release.a : mqttclient.oem4f (.text:mutexUnlock)
                  00011c80    00000060     sysbios.aem4f : BIOS.obj (.text:pthread_exit)
                  00011ce0    00000060     simplelink.a : cc_pal.obj (.text:spi_Open)
                  00011d40    00000060     sysbios.aem4f : BIOS.obj (.text:ti_sysbios_family_arm_msp432_Timer_setNextTick__E)
                  00011da0    00000060                   : BIOS.obj (.text:ti_sysbios_knl_Semaphore_post__E)
                  00011e00    00000060                   : BIOS.obj (.text:ti_sysbios_knl_Swi_run__I)
                  00011e60    0000005e     msp432p4xx_driverlib.lib : pcm.o (.text:PCM_getCoreVoltageLevel)
                  00011ebe    0000005e     slnetifwifi.a : slnetifwifi.obj (.text:SlNetIfWifi_setSockOpt)
                  00011f1c    0000005c     uart_term.obj (.text:InitTerm)
                  00011f78    0000005c     mqtt_release.a : client_core.oem4f (.text:MQTTClientCore_exitLib)
                  00011fd4    0000005c                    : mqtt_net_func.oem4f (.text:MQTTNet_tcpListen)
                  00012030    0000005c     simplelink.a : spawn.obj (.text:_SlInternalSpawn)
                  0001208c    00000004     release_pem4f.oem4f (.text:ti_sysbios_BIOS_RtsGateProxy_enter__E)
                  00012090    0000005c     sysbios.aem4f : BIOS.obj (.text:ti_sysbios_family_arm_msp432_Timer_getCurrentTick__E)
                  000120ec    00000004     release_pem4f.oem4f (.text:ti_sysbios_BIOS_RtsGateProxy_leave__E)
                  000120f0    0000005c     sysbios.aem4f : BIOS.obj (.text:ti_sysbios_knl_Swi_schedule__I)
                  0001214c    00000004     release_pem4f.oem4f (.text:ti_sysbios_family_arm_m3_Hwi_delete)
                  00012150    0000005c     sysbios.aem4f : BIOS.obj (.text:ti_sysbios_knl_Task_startCore__E)
                  000121ac    00000004     release_pem4f.oem4f (.text:ti_sysbios_family_arm_m3_TaskSupport_Module__startupDone__S)
                  000121b0    0000005c     sysbios.aem4f : BIOS.obj (.text:xdc_runtime_Startup_exec__E)
                  0001220c    0000005a     msp432p4xx_driverlib.lib : pcm.o (.text:PCM_getPowerMode)
                  00012266    00000002     --HOLE-- [fill = 0]
                  00012268    00000058     drivers_msp432p4x1xi.aem4f : GPIOMSP432.oem4f (.text:GPIO_write)
                  000122c0    00000058     slnetsock_release.a : slnetsock.oem4f (.text:SlNetSock_recv)
                  00012318    00000058                         : slnetsock.oem4f (.text:SlNetSock_send)
                  00012370    00000058     simplelink.a : sl_socket.obj (.text:_SlDrvClearCtrlSocket)
                  000123c8    00000058     boot.aem4f : boot.oem4f (.text)
                  00012420    00000058     mqtt_release.a : client_core.oem4f (.text:clRecv)
                  00012478    00000058     drivers_msp432p4x1xi.aem4f : UARTMSP432.oem4f (.text:readIsrBinaryBlocking)
                  000124d0    00000058     mqtt_release.a : client_core.oem4f (.text:singleCtxKaSequence)
                  00012528    00000058     simplelink.a : sl_socket.obj (.text:sl_Listen)
                  00012580    00000058                  : eventreg.obj (.text:sl_RegisterLibsEventHandler)
                  000125d8    00000058     sysbios.aem4f : m3_Hwi_asm_switch.obj (.text:ti_sysbios_family_arm_m3_Hwi_initStacks__E)
                  00012630    00000056     mqtt_release.a : mqtt_common.oem4f (.text:MQTT_packetPubAppendData)
                  00012686    00000056     rtsv7M4_T_le_v4SPD16_eabi.lib : _printfi.c.obj (.text:_pconv_f)
                  000126dc    00000056     mqtt_release.a : client_core.oem4f (.text:procAckMsgRx)
                  00012732    00000002     --HOLE-- [fill = 0]
                  00012734    00000054                    : client_core.oem4f (.text:MQTTClientCore_deleteCtx)
                  00012788    00000054                    : client_core.oem4f (.text:MQTTClientCore_sendDisconn)
                  000127dc    00000054     msp432p4xx_driverlib.lib : pcm.o (.text:PCM_shutdownDevice)
                  00012830    00000054     drivers_msp432p4x1xi.aem4f : TimerMSP432.oem4f (.text:TimerMSP432_freeTimerResource)
                  00012884    00000054     rtsv7M4_T_le_v4SPD16_eabi.lib : _ltoa.c.obj (.text:__TI_ltoa)
                  000128d8    00000054     mqtt_release.a : client_core.oem4f (.text:grpNetSetupCreate)
                  0001292c    00000054     drivers_msp432p4x1xi.aem4f : SPIMSP432DMA.oem4f (.text:spiHwiFxn)
                  00012980    00000054     release_pem4f.oem4f (.text:ti_sysbios_family_arm_m3_Hwi_create)
                  000129d4    00000004     release_pem4f.oem4f (.text:ti_sysbios_heaps_HeapMem_Module_GateProxy_enter__E)
                  000129d8    00000054     sysbios.aem4f : BIOS.obj (.text:ti_sysbios_family_arm_msp432_Timer_initDevice__I)
                  00012a2c    00000054     release_pem4f.oem4f (.text:ti_sysbios_knl_Mailbox_create)
                  00012a80    00000052     rtsv7M4_T_le_v4SPD16_eabi.lib : _printfi.c.obj (.text:_ecpy)
                  00012ad2    00000002     --HOLE-- [fill = 0]
                  00012ad4    00000050     dpl_msp432p4x1xi.aem4f : ClockP_tirtos.oem4f (.text:ClockP_create)
                  00012b24    00000050     slnetsock_release.a : slnetif.oem4f (.text:SlNetIf_queryIf)
                  00012b74    00000050     drivers_msp432p4x1xi.aem4f : TimerMSP432.oem4f (.text:TimerMSP432_hwiIntFunction)
                  00012bc4    00000050                                : UDMAMSP432.oem4f (.text:UDMAMSP432_hwiFxn)
                  00012c14    00000050     simplelink.a : sl_socket.obj (.text:_SlDrvCloseCtrlSocket)
                  00012c64    00000050                  : driver.obj (.text:_SlDrvCmdSend_noWait)
                  00012cb4    00000050                  : driver.obj (.text:_SlDrvUpdateApiInProgress)
                  00012d04    00000050                  : spawn.obj (.text:_SlInternalSpawnTaskEntry)
                  00012d54    00000050                  : eventreg.obj (.text:_SlNetAppHttpServerHdlr)
                  00012da4    00000050                  : eventreg.obj (.text:_SlNetAppRequestHdlr)
                  00012df4    00000050     mqtt_release.a : client_core.oem4f (.text:_procAckMsgRx)
                  00012e44    00000004     release_pem4f.oem4f (.text:ti_sysbios_heaps_HeapMem_Module_GateProxy_leave__E)
                  00012e48    00000050     sysbios.aem4f : BIOS.obj (.text:mq_send)
                  00012e98    00000050                   : BIOS.obj (.text:ti_sysbios_family_arm_m3_Hwi_Module_startup__E)
                  00012ee8    00000050     release_pem4f.oem4f (.text:ti_sysbios_knl_Task_create)
                  00012f38    0000004e     mqtt_release.a : client_core.oem4f (.text:MQTTClientCore_registerWillInfo)
                  00012f86    0000004e     drivers_msp432p4x1xi.aem4f : TimerMSP432.oem4f (.text:TimerMSP432_close)
                  00012fd4    0000004c     dpl_msp432p4x1xi.aem4f : PowerMSP432_tirtos.oem4f (.text:PowerMSP432_sleepPolicy)
                  00013020    0000004c     slnetifwifi.a : slnetifwifi.obj (.text:SlNetIfWifi_getConnectionStatus)
                  0001306c    0000004c     slnetsock_release.a : slnetsock.oem4f (.text:SlNetSock_freeVirtualSocket)
                  000130b8    0000004c                         : slnetsock.oem4f (.text:SlNetSock_startSec)
                  00013104    0000004c     mqtt_release.a : client_core.oem4f (.text:ack1WlMqpDispatch)
                  00013150    0000004c     rtsv7M4_T_le_v4SPD16_eabi.lib : atoi.c.obj (.text:atoi)
                  0001319c    0000004c                                   : cpy_tbl.c.obj (.text:copy_in)
                  000131e8    0000004c     dht11.obj (.text:countHandler)
                  00013234    0000004c     mqtt_release.a : client_core.oem4f (.text:loopbTrigger)
                  00013280    0000004c     drivers_msp432p4x1xi.aem4f : UARTMSP432.oem4f (.text:readIsrBinaryCallback)
                  000132cc    0000004c     mqtt_release.a : client_core.oem4f (.text:singleCtxRxPrep)
                  00013318    0000004c     simplelink.a : wlan.obj (.text:sl_WlanSetMode)
                  00013364    0000004c     rtsv7M4_T_le_v4SPD16_eabi.lib : snprintf.c.obj (.text:snprintf)
                  000133b0    0000004c     sysbios.aem4f : BIOS.obj (.text:ti_sysbios_family_arm_msp432_Timer_postInit__I)
                  000133fc    00000004     release_pem4f.oem4f (.text:ti_sysbios_knl_Clock_TimerProxy_getCurrentTick__E)
                  00013400    0000004c     sysbios.aem4f : BIOS.obj (.text:ti_sysbios_family_arm_msp432_Timer_start__E)
                  0001344c    00000004     release_pem4f.oem4f (.text:ti_sysbios_knl_Clock_TimerProxy_getMaxTicks__E)
                  00013450    0000004c     sysbios.aem4f : BIOS.obj (.text:ti_sysbios_heaps_HeapMem_getStats__E)
                  0001349c    00000004     release_pem4f.oem4f (.text:ti_sysbios_knl_Clock_TimerProxy_setNextTick__E)
                  000134a0    0000004c     sysbios.aem4f : BIOS.obj (.text:ti_sysbios_knl_Swi_runLoop__I)
                  000134ec    00000004     release_pem4f.oem4f (.text:ti_sysbios_knl_Clock_delete)
                  000134f0    0000004c     sysbios.aem4f : BIOS.obj (.text:ti_sysbios_knl_Task_allBlockedFunction__I)
                  0001353c    00000004     release_pem4f.oem4f (.text:ti_sysbios_knl_Semaphore_delete)
                  00013540    0000004c     sysbios.aem4f : BIOS.obj (.text:ti_sysbios_knl_Task_schedule__I)
                  0001358c    0000004b     mqtt_client_app.obj (.text:ToggleLED1CB)
                  000135d7    00000001     --HOLE-- [fill = 0]
                  000135d8    0000004b     mqtt_client_app.obj (.text:ToggleLED2CB)
                  00013623    00000001     --HOLE-- [fill = 0]
                  00013624    0000004b     mqtt_client_app.obj (.text:ToggleLED3CB)
                  0001366f    00000001     --HOLE-- [fill = 0]
                  00013670    0000004a     mqtt_release.a : client_core.oem4f (.text:clCtxRecv)
                  000136ba    00000002     --HOLE-- [fill = 0]
                  000136bc    00000048                    : mqttclient.oem4f (.text:MQTTClient_set)
                  00013704    00000048     drivers_msp432p4x1xi.aem4f : PowerMSP432.oem4f (.text:Power_releaseConstraint)
                  0001374c    00000048     slnetsock_release.a : slnetsock.oem4f (.text:SlNetSock_connect)
                  00013794    00000048                         : slnetsock.oem4f (.text:SlNetSock_init)
                  000137dc    00000048                         : slnetsock.oem4f (.text:SlNetSock_setOpt)
                  00013824    00000048     simplelink.a : eventreg.obj (.text:_SlDeviceFatalErrorEvtHdlr)
                  0001386c    00000048                  : eventreg.obj (.text:_SlDeviceGeneralEvtHdlr)
                  000138b4    00000048                  : driver.obj (.text:_SlDrvBasicCmd)
                  000138fc    00000048                  : driver.obj (.text:_SlDrvSyncObjWaitTimeout)
                  00013944    00000048                  : eventreg.obj (.text:_SlNetAppEvtHdlr)
                  0001398c    00000048                  : eventreg.obj (.text:_SlNetAppRequestMemFree)
                  000139d4    00000048                  : eventreg.obj (.text:_SlSockEvtHdlr)
                  00013a1c    00000048                  : eventreg.obj (.text:_SlWlanEvtHdlr)
                  00013a64    00000048     mqtt_release.a : client_core.oem4f (.text:bufUTF8WrTry)
                  00013aac    00000048                    : client_core.oem4f (.text:clCtxSetup)
                  00013af4    00000004     release_pem4f.oem4f (.text:ti_sysbios_knl_Task_delete)
                  00013af8    00000048     sysbios.aem4f : BIOS.obj (.text:mq_close)
                  00013b40    00000048                   : BIOS.obj (.text:pthread_mutex_init)
                  00013b88    00000048     rtsv7M4_T_le_v4SPD16_eabi.lib : fd_toi_t2.asm.obj (.text)
                  00013bd0    00000048     sysbios.aem4f : BIOS.obj (.text:ti_sysbios_family_arm_m3_Hwi_disableInterrupt__E)
                  00013c18    00000048                   : BIOS.obj (.text:ti_sysbios_family_arm_m3_Hwi_enableInterrupt__E)
                  00013c60    00000048                   : BIOS.obj (.text:ti_sysbios_knl_Mailbox_Module_startup__E)
                  00013ca8    00000048     mqtt_release.a : client_core.oem4f (.text:wrConnectVh)
                  00013cf0    00000048     sysbios.aem4f : BIOS.obj (.text:xdc_runtime_Core_assignParams__I)
                  00013d38    00000046     drivers_msp432p4x1xi.aem4f : RingBuf.oem4f (.text:RingBuf_put)
                  00013d7e    00000002     --HOLE-- [fill = 0]
                  00013d80    00000044     mqtt_release.a : client_core.oem4f (.text:MQTTClientCore_run)
                  00013dc4    00000044                    : mqtt_net_func.oem4f (.text:MQTTNet_tcpRecv)
                  00013e08    00000044                    : mqttclient.oem4f (.text:MqttClientCtxDelete)
                  00013e4c    00000044     drivers_msp432p4x1xi.aem4f : SPI.oem4f (.text:SPI_init)
                  00013e90    00000044     slnetsock_release.a : slnetutils.oem4f (.text:SlNetUtil_strTok)
                  00013ed4    00000044     drivers_msp432p4x1xi.aem4f : Timer.oem4f (.text:Timer_init)
                  00013f18    00000044                                : UART.oem4f (.text:UART_init)
                  00013f5c    00000044     simplelink.a : driver.obj (.text:_SlDrvRxIrqHandler)
                  00013fa0    00000044     sysbios.aem4f : BIOS.obj (.text:ti_sysbios_family_arm_m3_Hwi_getStackInfo__E)
                  00013fe4    00000004     release_pem4f.oem4f (.text:xdc_runtime_System_Module_GateProxy_enter__E)
                  00013fe8    00000044     sysbios.aem4f : BIOS.obj (.text:ti_sysbios_knl_Swi_post__E)
                  0001402c    00000044     mqtt_release.a : client_core.oem4f (.text:vhMsgSend)
                  00014070    00000044     sysbios.aem4f : BIOS.obj (.text:xdc_runtime_System_atexit__E)
                  000140b4    00000043     mqtt_client_app.obj (.text:BrokerCB)
                  000140f7    00000001     --HOLE-- [fill = 0]
                  000140f8    00000043     mqtt_client_app.obj (.text:infoTopicCB)
                  0001413b    00000001     --HOLE-- [fill = 0]
                  0001413c    00000042     mqtt_release.a : mqtt_common.oem4f (.text:MQTT_packetBufRdRemlen)
                  0001417e    00000040     simplelink.a : sl_socket.obj (.text:CountSetBits)
                  000141be    00000002     --HOLE-- [fill = 0]
                  000141c0    00000040     dpl_msp432p4x1xi.aem4f : HwiP_tirtos.oem4f (.text:HwiP_create)
                  00014200    00000040     network_if.obj (.text:InitializeAppVariables)
                  00014240    00000040     mqtt_release.a : client_core.oem4f (.text:MQTTClientCore_registerCtxInfo)
                  00014280    00000040     drivers_msp432p4x1xi.aem4f : RingBuf.oem4f (.text:RingBuf_get)
                  000142c0    00000040                                : SPI.oem4f (.text:SPI_open)
                  00014300    00000040     network_if.obj (.text:SimpleLinkGeneralEventHandler)
                  00014340    00000040     slnetsock_release.a : slnetsock.oem4f (.text:SlNetSock_bind)
                  00014380    00000040     drivers_msp432p4x1xi.aem4f : Timer.oem4f (.text:Timer_open)
                  000143c0    00000040                                : UARTMSP432.oem4f (.text:UARTMSP432_read)
                  00014400    00000040                                : UART.oem4f (.text:UART_open)
                  00014440    00000040     simplelink.a : driver.obj (.text:_SlFindAndReleasePendingCmd)
                  00014480    00000040                  : spawn.obj (.text:_SlInternalSpawnWaitForEvent)
                  000144c0    00000040                  : eventreg.obj (.text:_SlIsEventRegistered)
                  00014500    00000040     mqtt_release.a : mqttclient.oem4f (.text:_sl_ExtLib_ServerAckLockedWait)
                  00014540    00000040     msp432p4xx_driverlib.lib : spi.o (.text:is_A_Module)
                  00014580    00000040     sysbios.aem4f : BIOS.obj (.text:mq_receive)
                  000145c0    00000040     mqtt_release.a : client_core.oem4f (.text:netConnect)
                  00014600    00000040     drivers_msp432p4x1xi.aem4f : UARTMSP432.oem4f (.text:perfChangeNotifyFxn)
                  00014640    00000040     sysbios.aem4f : BIOS.obj (.text:ti_sysbios_family_arm_msp432_Timer_Module_startup__E)
                  00014680    00000040                   : BIOS.obj (.text:ti_sysbios_family_arm_msp432_Timer_startup__E)
                  000146c0    00000040                   : BIOS.obj (.text:ti_sysbios_heaps_HeapMem_Instance_init__E)
                  00014700    00000040                   : BIOS.obj (.text:ti_sysbios_knl_Clock_Instance_init__E)
                  00014740    00000040     rtsv7M4_T_le_v4SPD16_eabi.lib : vsnprintf.c.obj (.text:vsnprintf)
                  00014780    0000003e     mqtt_release.a : mqtt_common.oem4f (.text:MQTT_packetAckWlistRemove)
                  000147be    0000003e                    : mqtt_common.oem4f (.text:MQTT_packetBufTailWrRemlen)
                  000147fc    0000003e     slnetsock_release.a : slnetsock.oem4f (.text:SlNetSock_close)
                  0001483a    0000003e     simplelink.a : sl_socket.obj (.text:_SlSocketBuildAddress)
                  00014878    0000003e     rtsv7M4_T_le_v4SPD16_eabi.lib : _printfi.c.obj (.text:_fcpy)
                  000148b6    0000003e     mqtt_release.a : client_core.oem4f (.text:clCtxSeg1Send)
                  000148f4    0000003e                    : client_core.oem4f (.text:procPingrspRx)
                  00014932    0000003e     release_pem4f.oem4f (.text:realloc)
                  00014970    0000003e     sysbios.aem4f : BIOS.obj (.text:sem_timedwait)
                  000149ae    00000002     --HOLE-- [fill = 0]
                  000149b0    0000003c     mqtt_release.a : client_core.oem4f (.text:MQTTClientCore_registerBuffers)
                  000149ec    0000003c                    : mqttclient.oem4f (.text:MQTTClient_disconnect)
                  00014a28    0000003c                    : mqtt_common.oem4f (.text:MQTT_qos2PubCqCheck)
                  00014a64    0000003c     network_if.obj (.text:Network_IF_DisconnectFromAP)
                  00014aa0    0000003c     dpl_msp432p4x1xi.aem4f : SemaphoreP_tirtos.oem4f (.text:SemaphoreP_create)
                  00014adc    0000003c     simplelink.a : netapp.obj (.text:_SlNetAppCopyPingResultsToReport)
                  00014b18    0000003c     mqtt_release.a : mqttclient.oem4f (.text:processDisconnCB)
                  00014b54    00000004     release_pem4f.oem4f (.text:xdc_runtime_System_Module_GateProxy_leave__E)
                  00014b58    0000003c     sysbios.aem4f : BIOS.obj (.text:pthread_mutex_unlock)
                  00014b94    0000003c     mqtt_client_app.obj (.text:sendinfo)
                  00014bd0    0000003c     mqtt_release.a : client_core.oem4f (.text:singleCtxRxPrepLocked)
                  00014c0c    00000004     --HOLE-- [fill = 0]
                  00014c10    0000003c     sysbios.aem4f : BIOS.obj (.text:sleep)
                  00014c4c    0000003c     mqtt_release.a : client_core.oem4f (.text:tailIncorpMsgID)
                  00014c88    0000003c     sysbios.aem4f : BIOS.obj (.text:ti_sysbios_family_arm_m3_Hwi_Instance_finalize__E)
                  00014cc4    00000004     --HOLE-- [fill = 0]
                  00014cc8    0000003c                   : BIOS.obj (.text:ti_sysbios_family_arm_msp432_Seconds_Module_startup__E)
                  00014d04    0000003c     release_pem4f.oem4f (.text:ti_sysbios_knl_Clock_create)
                  00014d40    0000003c     sysbios.aem4f : BIOS.obj (.text:ti_sysbios_knl_Swi_restore__E)
                  00014d7c    0000003c     simplelink.a : sl_socket.obj (.text:to_mSec)
                  00014db8    0000003c     sysbios.aem4f : BIOS.obj (.text:usleep)
                  00014df4    00000004     --HOLE-- [fill = 0]
                  00014df8    0000003c                   : BIOS.obj (.text:xdc_runtime_System_processAtExit__E)
                  00014e34    0000003a     slnetifwifi.a : slnetifwifi.obj (.text:SlNetIfWifi_getIPAddr)
                  00014e6e    0000003a     mqtt_release.a : mqtt_common.oem4f (.text:mqpProcVhMsgIdRx)
                  00014ea8    00000038     drivers_msp432p4x1xi.aem4f : GPIOMSP432.oem4f (.text:GPIO_toggle)
                  00014ee0    00000038     mqtt_release.a : client_core.oem4f (.text:MQTTClientCore_registerNetSvc)
                  00014f18    00000038                    : mqtt_common.oem4f (.text:MQTT_qos2PubCqLogup)
                  00014f50    00000038     drivers_msp432p4x1xi.aem4f : PowerMSP432.oem4f (.text:Power_setConstraint)
                  00014f88    00000038     slnetifwifi.a : slnetifwifi.obj (.text:SlNetIfWifi_recvFrom)
                  00014fc0    00000038                   : slnetifwifi.obj (.text:SlNetIfWifi_sendTo)
                  00014ff8    00000038                   : slnetifwifi.obj (.text:SlNetIfWifi_socket)
                  00015030    00000038     slnetsock_release.a : slnetif.oem4f (.text:SlNetIf_configCheck)
                  00015068    00000038                         : slnetsock.oem4f (.text:SlNetSock_listen)
                  000150a0    00000038                         : slnetutils.oem4f (.text:SlNetUtil_htonl)
                  000150d8    00000038     drivers_msp432p4x1xi.aem4f : TimerMSP432.oem4f (.text:TimerMSP432_getCount)
                  00015110    00000038     mqtt_release.a : client_core.oem4f (.text:mqpAllocAtomic)
                  00015148    00000038                    : client_core.oem4f (.text:netRecv)
                  00015180    00000038     drivers_msp432p4x1xi.aem4f : PowerMSP432.oem4f (.text:notify)
                  000151b8    00000037     network_if.obj (.text:Network_IF_DeInitDriver)
                  000151ef    00000001     --HOLE-- [fill = 0]
                  000151f0    00000036     mqtt_release.a : mqtt_common.oem4f (.text:MQTT_packetPrepFh)
                  00015226    00000036     slnetifwifi.a : slnetifwifi.obj (.text:SlNetIfWifi_getHostByName)
                  0001525c    00000036                   : slnetifwifi.obj (.text:SlNetIfWifi_select)
                  00015292    00000036     drivers_msp432p4x1xi.aem4f : UARTMSP432.oem4f (.text:UARTMSP432_readCancel)
                  000152c8    00000036     mqtt_release.a : client_core.oem4f (.text:_procPubRecRx)
                  000152fe    00000036     rtsv7M4_T_le_v4SPD16_eabi.lib : strncpy.c.obj (.text:strncpy)
                  00015334    00000034     drivers_msp432p4x1xi.aem4f : GPIOMSP432.oem4f (.text:GPIO_clearInt)
                  00015368    00000034                                : GPIOMSP432.oem4f (.text:GPIO_disableInt)
                  0001539c    00000034                                : GPIOMSP432.oem4f (.text:GPIO_enableInt)
                  000153d0    00000034     slnetsock_release.a : slnetutils.oem4f (.text:SlNetUtil_htons)
                  00015404    00000034     mqtt_release.a : client_core.oem4f (.text:groupCtxsKaSequence)
                  00015438    00000034                    : client_core.oem4f (.text:mqpFreeLocked)
                  0001546c    00000034                    : client_core.oem4f (.text:procLoopbackRecv)
                  000154a0    00000034     release_pem4f.oem4f (.text:ti_sysbios_knl_Semaphore_create)
                  000154d4    00000032     mqtt_release.a : mqtt_common.oem4f (.text:MQTT_clCtxTimeoutInsert)
                  00015506    00000032                    : client_core.oem4f (.text:connectedStateRx)
                  00015538    00000032     sysbios.aem4f : BIOS.obj (.text:ti_sysbios_hal_Hwi_initStack)
                  0001556a    00000002     --HOLE-- [fill = 0]
                  0001556c    00000030     simplelink.a : cc_pal.obj (.text:HostIrqGPIO_callback)
                  0001559c    00000030                  : driver.obj (.text:_SlDrvGlobalObjUnLock)
                  000155cc    00000030                  : fs.obj (.text:_SlFsStrlen)
                  000155fc    00000030     rtsv7M4_T_le_v4SPD16_eabi.lib : snprintf.c.obj (.text:_outs)
                  0001562c    00000030                                   : vsnprintf.c.obj (.text:_outs)
                  0001565c    00000030     mqtt_release.a : client_core.oem4f (.text:ack2MsgIdUnlog)
                  0001568c    00000030                    : client_core.oem4f (.text:clientDescInit)
                  000156bc    00000004     --HOLE-- [fill = 0]
                  000156c0    00000030     sysbios.aem4f : BIOS.obj (.text:findInList$42)
                  000156f0    00000030     mqtt_release.a : mqttclient.oem4f (.text:getAvailableClictxMem)
                  00015720    00000030     drivers_msp432p4x1xi.aem4f : SPIMSP432DMA.oem4f (.text:mapPin)
                  00015750    00000030                                : UARTMSP432.oem4f (.text:mapPin)
                  00015780    00000030     release_pem4f.oem4f (.text:ti_sysbios_BIOS_atExitFunc__I)
                  000157b0    00000030     release_pem4f.oem4f (.text:ti_sysbios_BIOS_startFunc__I)
                  000157e0    00000030     sysbios.aem4f : BIOS.obj (.text:ti_sysbios_family_arm_m3_TaskSupport_start__E)
                  00015810    00000030     release_pem4f.oem4f (.text:ti_sysbios_gates_GateHwi_Object__create__S)
                  00015840    00000030     release_pem4f.oem4f (.text:ti_sysbios_gates_GateMutex_Object__create__S)
                  00015870    00000030     sysbios.aem4f : BIOS.obj (.text:ti_sysbios_gates_GateMutex_enter__E)
                  000158a0    00000030     release_pem4f.oem4f (.text:ti_sysbios_heaps_HeapMem_Object__create__S)
                  000158d0    00000030     sysbios.aem4f : BIOS.obj (.text:ti_sysbios_knl_Mailbox_postInit__I)
                  00015900    00000030     release_pem4f.oem4f (.text:ti_sysbios_knl_Semaphore_construct)
                  00015930    00000030     sysbios.aem4f : BIOS.obj (.text:ti_sysbios_knl_Semaphore_pendTimeout__I)
                  00015960    00000030                   : BIOS.obj (.text:ti_sysbios_knl_Task_processVitalTaskFlag__I)
                  00015990    00000030                   : BIOS.obj (.text:ti_sysbios_knl_Task_restore__E)
                  000159c0    00000030                   : BIOS.obj (.text:ti_sysbios_knl_Task_unblockI__E)
                  000159f0    0000002e     simplelink.a : cc_pal.obj (.text:Mutex_create_handle)
                  00015a1e    0000002e     rtsv7M4_T_le_v4SPD16_eabi.lib : i_tofd_t2.asm.obj (.text)
                  00015a4c    0000002e     release_pem4f.oem4f (.text:ti_sysbios_rts_MemAlloc_alloc)
                  00015a7a    0000002c     dpl_msp432p4x1xi.aem4f : PowerMSP432_tirtos.oem4f (.text:PowerMSP432_updateFreqs)
                  00015aa6    00000002     --HOLE-- [fill = 0]
                  00015aa8    0000002c     msp432p4xx_driverlib.lib : rtc_c.o (.text:RTC_C_holdClock)
                  00015ad4    0000002c     dpl_msp432p4x1xi.aem4f : SemaphoreP_tirtos.oem4f (.text:SemaphoreP_createBinary)
                  00015b00    0000002c     slnetifwifi.a : slnetifwifi.obj (.text:SlNetIfWifi_recv)
                  00015b2c    0000002c                   : slnetifwifi.obj (.text:SlNetIfWifi_send)
                  00015b58    0000002c     simplelink.a : driver.obj (.text:_SlDrvSyncObjWaitForever)
                  00015b84    00000004     --HOLE-- [fill = 0]
                  00015b88    0000002c     sysbios.aem4f : BIOS.obj (.text:_pthread_cleanupFxn)
                  00015bb4    00000004     --HOLE-- [fill = 0]
                  00015bb8    0000002c                   : BIOS.obj (.text:_pthread_delete$43)
                  00015be4    0000002c     mqtt_release.a : client_core.oem4f (.text:doNetCloseRx)
                  00015c10    0000002c     drivers_msp432p4x1xi.aem4f : TimerMSP432.oem4f (.text:perfChangeNotifyFxn)
                  00015c3c    0000002c     mqtt_release.a : client_core.oem4f (.text:singleCtxAdjWaitSecsGet)
                  00015c68    0000002c     release_pem4f.oem4f (.text:ti_sysbios_gates_GateHwi_Handle__label__S)
                  00015c94    0000002c     release_pem4f.oem4f (.text:ti_sysbios_gates_GateMutex_Handle__label__S)
                  00015cc0    0000002c     release_pem4f.oem4f (.text:ti_sysbios_heaps_HeapMem_Handle__label__S)
                  00015cec    0000002c     release_pem4f.oem4f (.text:ti_sysbios_knl_Queue_construct)
                  00015d18    0000002a     slnetsock_release.a : slnetutils.oem4f (.text:SlNetUtil_inetPton)
                  00015d42    0000002a     mqtt_release.a : client_core.oem4f (.text:ack2MsgIdDispatch)
                  00015d6c    0000002a     release_pem4f.oem4f (.text:calloc)
                  00015d96    0000002a     drivers_msp432p4x1xi.aem4f : SPIMSP432DMA.oem4f (.text:perfChangeNotifyFxn)
                  00015dc0    0000002a     mqtt_release.a : client_core.oem4f (.text:pingReqSend)
                  00015dea    00000006                    : client_core.oem4f (.text:ack2MsgIdLogup)
                  00015df0    0000002a     sysbios.aem4f : BIOS.obj (.text:sem_init)
                  00015e1a    0000002a     mqtt_release.a : client_core.oem4f (.text:txPartSetup)
                  00015e44    00000028                    : mqtt_common.oem4f (.text:MQTT_packetBufWrUtf8)
                  00015e6c    00000028     msp432p4xx_driverlib.lib : pcm.o (.text:PCM_gotoLPM0)
                  00015e94    00000028     drivers_msp432p4x1xi.aem4f : PowerMSP432.oem4f (.text:Power_registerNotify)
                  00015ebc    00000028     msp432p4xx_driverlib.lib : spi.o (.text:SPI_getInterruptStatus)
                  00015ee4    00000028     slnetsock_release.a : slnetif.oem4f (.text:SlNetIf_getIfByID)
                  00015f0c    00000028                         : slnetsock.oem4f (.text:SlNetSock_sdsIsSet)
                  00015f34    00000028                         : slnetsock.oem4f (.text:SlNetSock_sdsSet)
                  00015f5c    00000028                         : slnetsock.oem4f (.text:SlNetSock_secAttribDelete)
                  00015f84    00000028     simplelink.a : flowcont.obj (.text:_SlFlowContSet)
                  00015fac    00000028     mqtt_release.a : client_core.oem4f (.text:_procPubRelRx)
                  00015fd4    00000028                    : mqttclient.oem4f (.text:_sl_ExtLib_AwaitedAckLockedSet)
                  00015ffc    00000028     drivers_msp432p4x1xi.aem4f : PowerMSP432.oem4f (.text:disableFaultCounter)
                  00016024    00000028                                : PowerMSP432.oem4f (.text:disableHFXT)
                  0001604c    00000028                                : UARTMSP432.oem4f (.text:findBaudDividerIndex)
                  00016074    00000028     rtsv7M4_T_le_v4SPD16_eabi.lib : memmov.c.obj (.text:memmove)
                  0001609c    00000028     sysbios.aem4f : m3_Hwi_asm.obj (.text:ti_sysbios_family_arm_m3_Hwi_excHandlerAsm__I)
                  000160c4    00000004     --HOLE-- [fill = 0]
                  000160c8    00000028                   : BIOS.obj (.text:ti_sysbios_knl_Clock_addI__E)
                  000160f0    00000028                   : BIOS.obj (.text:ti_sysbios_knl_Swi_Module_startup__E)
                  00016118    00000026     drivers_msp432p4x1xi.aem4f : List.oem4f (.text:List_put)
                  0001613e    00000026                                : List.oem4f (.text:List_remove)
                  00016164    00000026     mqtt_release.a : mqtt_common.oem4f (.text:MQTT_clCtxRemove)
                  0001618a    00000026     sysbios.aem4f : m3_Hwi_asm.obj (.text:ti_sysbios_family_arm_m3_Hwi_pendSV__I)
                  000161b0    00000024     slnetsock_release.a : slnetif.oem4f (.text:SlNetIf_getConnectionStatus)
                  000161d4    00000024     msp432p4xx_driverlib.lib : wdt_a.o (.text:WDT_A_holdTimer)
                  000161f8    00000024     simplelink.a : driver.obj (.text:_SlDrvIsApiInProgress)
                  0001621c    00000024                  : driver.obj (.text:_SlDrvStartMeasureTimeout)
                  00016240    00000024     mqtt_release.a : client_core.oem4f (.text:conn2usedCtxs)
                  00016264    00000024     rtsv7M4_T_le_v4SPD16_eabi.lib : memcmp.c.obj (.text:memcmp)
                  00016288    00000024     sysbios.aem4f : BIOS.obj (.text:pthread_attr_init)
                  000162ac    00000024     mqtt_release.a : client_core.oem4f (.text:recvHvecLoad)
                  000162d0    00000024     simplelink.a : wlan.obj (.text:sl_WlanDisconnect)
                  000162f4    00000024     release_pem4f.oem4f (.text:ti_sysbios_BIOS_registerRTSLock__I)
                  00016318    00000024     release_pem4f.oem4f (.text:ti_sysbios_BIOS_removeRTSLock__I)
                  0001633c    00000004     --HOLE-- [fill = 0]
                  00016340    00000024     sysbios.aem4f : BIOS.obj (.text:ti_sysbios_family_arm_msp432_ClockFreqs_setFrequency__E)
                  00016364    00000024     release_pem4f.oem4f (.text:ti_sysbios_gates_GateMutex_Object__delete__S)
                  00016388    00000024     sysbios.aem4f : BIOS.obj (.text:ti_sysbios_knl_Clock_Module_startup__E)
                  000163ac    00000024     release_pem4f.oem4f (.text:ti_sysbios_knl_Clock_Object__delete__S)
                  000163d0    00000024     sysbios.aem4f : BIOS.obj (.text:ti_sysbios_knl_Semaphore_Instance_init__E)
                  000163f4    00000024     release_pem4f.oem4f (.text:ti_sysbios_knl_Semaphore_Object__delete__S)
                  00016418    00000024     sysbios.aem4f : BIOS.obj (.text:ti_sysbios_knl_Task_restoreHwi__E)
                  0001643c    00000004     --HOLE-- [fill = 0]
                  00016440    00000024                   : BIOS.obj (.text:xdc_runtime_Error_policyMin__E)
                  00016464    00000004     --HOLE-- [fill = 0]
                  00016468    00000024                   : BIOS.obj (.text:xdc_runtime_System_abort__E)
                  0001648c    00000022     mqtt_release.a : mqtt_common.oem4f (.text:MQTT_packetProcMsgIdAckRx)
                  000164ae    00000002     --HOLE-- [fill = 0]
                  000164b0    00000020     msp432p4xx_driverlib.lib : cs.o (.text:CS_setExternalClockSourceFrequency)
                  000164d0    00000020     mqtt_release.a : mqtt_common.oem4f (.text:MQTT_qos2PubCqReset)
                  000164f0    00000020     drivers_msp432p4x1xi.aem4f : PowerMSP432.oem4f (.text:Power_unregisterNotify)
                  00016510    00000020                                : RingBuf.oem4f (.text:RingBuf_peek)
                  00016530    00000020     slnetifwifi.a : slnetifwifi.obj (.text:SlNetIfWifi_accept)
                  00016550    00000020     sysbios.aem4f : BIOS.obj (.text:sem_trywait)
                  00016570    00000020     mqtt_release.a : client_core.oem4f (.text:session311fix)
                  00016590    00000020     release_pem4f.oem4f (.text:ti_sysbios_BIOS_rtsLock__I)
                  000165b0    00000020     release_pem4f.oem4f (.text:ti_sysbios_family_arm_m3_Hwi_Object__delete__S)
                  000165d0    00000020     sysbios.aem4f : BIOS.obj (.text:ti_sysbios_family_arm_m3_Hwi_clearInterrupt__E)
                  000165f0    00000020     release_pem4f.oem4f (.text:ti_sysbios_gates_GateHwi_Object__delete__S)
                  00016610    00000020     release_pem4f.oem4f (.text:ti_sysbios_heaps_HeapMem_Object__delete__S)
                  00016630    00000020     sysbios.aem4f : BIOS.obj (.text:ti_sysbios_knl_Clock_getTicks__E)
                  00016650    00000020                   : BIOS.obj (.text:ti_sysbios_knl_Idle_run__E)
                  00016670    00000020     release_pem4f.oem4f (.text:ti_sysbios_knl_Semaphore_destruct)
                  00016690    00000020     release_pem4f.oem4f (.text:ti_sysbios_knl_Task_Object__delete__S)
                  000166b0    0000001e     mqtt_release.a : client_core.oem4f (.text:MQTTClientCore_alloc)
                  000166ce    0000001e                    : client_core.oem4f (.text:MQTTClientCore_ctxRun)
                  000166ec    0000001e     slnetifwifi.a : slnetifwifi.obj (.text:SlNetIfWifi_bind)
                  0001670a    0000001e                   : slnetifwifi.obj (.text:SlNetIfWifi_connect)
                  00016728    0000001e     mqtt_release.a : client_core.oem4f (.text:procNetDataRecv)
                  00016746    0000001e                    : client_core.oem4f (.text:sessionDelete)
                  00016764    0000001e     sysbios.aem4f : m3_Hwi_asm_switch.obj (.text:ti_sysbios_family_xxx_Hwi_switchAndRunFunc)
                  00016782    00000002     --HOLE-- [fill = 0]
                  00016784    0000001c     uart_term.obj (.text:Message)
                  000167a0    0000001c     simplelink.a : cc_pal.obj (.text:NwpPowerOff)
                  000167bc    0000001c                  : cc_pal.obj (.text:NwpPowerOn)
                  000167d8    0000001c                  : cc_pal.obj (.text:WiFi_init)
                  000167f4    0000001c                  : device.obj (.text:_SlDeviceGetStartResponseConvert)
                  00016810    0000001c                  : spawn.obj (.text:_SlInternalIsItSpawnThread)
                  0001682c    0000001c     mqtt_release.a : client_core.oem4f (.text:awaitsPkts)
                  00016848    0000001c     ti_drivers_config.obj (.text:dmaErrorFxn)
                  00016864    0000001c     mqtt_release.a : client_core.oem4f (.text:doNetCloseTx)
                  00016880    0000001c     sysbios.aem4f : BIOS.obj (.text:getClockTicks$41)
                  0001689c    0000001c     rtsv7M4_T_le_v4SPD16_eabi.lib : memccpy.c.obj (.text:memccpy)
                  000168b8    0000001c     mqtt_release.a : client_core.oem4f (.text:processRecv)
                  000168d4    00000004     --HOLE-- [fill = 0]
                  000168d8    0000001c     sysbios.aem4f : BIOS.obj (.text:ti_sysbios_family_arm_m3_Hwi_excHandler__I)
                  000168f4    00000004     --HOLE-- [fill = 0]
                  000168f8    0000001c                   : BIOS.obj (.text:ti_sysbios_gates_GateMutex_Instance_init__E)
                  00016914    00000004     --HOLE-- [fill = 0]
                  00016918    0000001c                   : BIOS.obj (.text:ti_sysbios_knl_Clock_Instance_finalize__E)
                  00016934    00000004     --HOLE-- [fill = 0]
                  00016938    0000001c                   : BIOS.obj (.text:ti_sysbios_knl_Clock_scheduleNextTick__E)
                  00016954    0000001c     release_pem4f.oem4f (.text:ti_sysbios_knl_Queue_destruct)
                  00016970    0000001c     sysbios.aem4f : BIOS.obj (.text:ti_sysbios_knl_Queue_get__E)
                  0001698c    00000004     --HOLE-- [fill = 0]
                  00016990    0000001c                   : BIOS.obj (.text:ti_sysbios_knl_Queue_put__E)
                  000169ac    00000004     --HOLE-- [fill = 0]
                  000169b0    0000001c                   : BIOS.obj (.text:ti_sysbios_knl_Task_enter__I)
                  000169cc    00000004     --HOLE-- [fill = 0]
                  000169d0    0000001c                   : BIOS.obj (.text:ti_sysbios_rts_ti_ReentSupport_getReent__F)
                  000169ec    0000001c     mqtt_release.a : client_core.oem4f (.text:usedCtxsTOSort)
                  00016a08    0000001c     sysbios.aem4f : BIOS.obj (.text:xdc_runtime_Memory_valloc__E)
                  00016a24    0000001a     mqtt_release.a : mqtt_common.oem4f (.text:MQTT_packetAckWlistPurge)
                  00016a3e    0000001a     slnetifwifi.a : slnetifwifi.obj (.text:SlNetIfWifi_listen)
                  00016a58    0000001a     rtsv7M4_T_le_v4SPD16_eabi.lib : s_copysign.c.obj (.text:copysign)
                  00016a72    0000001a     release_pem4f.oem4f (.text:free)
                  00016a8c    00000018     msp432p4xx_driverlib.lib : spi.o (.text:EUSCI_A_SPI_getInterruptStatus)
                  00016aa4    00000018                              : spi.o (.text:EUSCI_B_SPI_getInterruptStatus)
                  00016abc    00000018     mqtt_release.a : mqtt_common.oem4f (.text:MQTT_clCtxTimeoutUpdate)
                  00016ad4    00000018     msp432p4xx_driverlib.lib : sysctl_a.o (.text:SysCtl_A_disableNMISource)
                  00016aec    00000018                              : sysctl_a.o (.text:SysCtl_A_enableNMISource)
                  00016b04    00000018     drivers_msp432p4x1xi.aem4f : UART.oem4f (.text:UART_Params_init)
                  00016b1c    00000018     simplelink.a : driver.obj (.text:_SlDrvProtectionObjLockWaitForever)
                  00016b34    00000018                  : driver.obj (.text:_SlDrvProtectionObjUnLock)
                  00016b4c    00000018     rtsv7M4_T_le_v4SPD16_eabi.lib : args_main.c.obj (.text:_args_main)
                  00016b64    00000018                                   : snprintf.c.obj (.text:_outc)
                  00016b7c    00000018                                   : vsnprintf.c.obj (.text:_outc)
                  00016b94    00000018     mqtt_release.a : client_core.oem4f (.text:groupCtxsAdjWaitSecsGet)
                  00016bac    00000018                    : client_core.oem4f (.text:netClCtxFind)
                  00016bc4    00000018     rtsv7M4_T_le_v4SPD16_eabi.lib : strcmp.c.obj (.text:strcmp)
                  00016bdc    00000018     release_pem4f.oem4f (.text:ti_sysbios_BIOS_rtsUnlock__I)
                  00016bf4    00000018     release_pem4f.oem4f (.text:ti_sysbios_family_arm_m3_Hwi_Module__startupDone__F)
                  00016c0c    00000018     sysbios.aem4f : m3_TaskSupport_asm.obj (.text:ti_sysbios_family_arm_m3_TaskSupport_swap__E)
                  00016c24    00000018     release_pem4f.oem4f (.text:ti_sysbios_family_arm_msp432_Timer_Module__startupDone__F)
                  00016c3c    00000004     --HOLE-- [fill = 0]
                  00016c40    00000018     sysbios.aem4f : BIOS.obj (.text:ti_sysbios_gates_GateMutex_leave__E)
                  00016c58    00000018                   : BIOS.obj (.text:ti_sysbios_knl_Task_sleepTimeout__I)
                  00016c70    00000018     release_pem4f.oem4f (.text:ti_sysbios_rts_ti_ReentSupport_getTlsAddr__I)
                  00016c88    00000018     sysbios.aem4f : BIOS.obj (.text:xdc_runtime_Error_init__E)
                  00016ca0    00000018                   : BIOS.obj (.text:xdc_runtime_System_exit__E)
                  00016cb8    00000016     mqtt_release.a : mqtt_net_func.oem4f (.text:MQTTNet_commClose)
                  00016cce    00000016                    : mqtt_common.oem4f (.text:MQTT_clCtxReset)
                  00016ce4    00000016                    : mqtt_common.oem4f (.text:MQTT_packetFree)
                  00016cfa    00000016                    : mqtt_common.oem4f (.text:MQTT_packetInit)
                  00016d10    00000016     simplelink.a : driver.obj (.text:_SlDrvMemZero)
                  00016d26    00000002     --HOLE-- [fill = 0]
                  00016d28    00000016     sysbios.aem4f : BIOS.obj (.text:clockFxn$41)
                  00016d3e    00000002     --HOLE-- [fill = 0]
                  00016d40    00000016                   : BIOS.obj (.text:pthread_mutex_destroy)
                  00016d56    00000016     rtsv7M4_T_le_v4SPD16_eabi.lib : strchr.c.obj (.text:strchr)
                  00016d6c    00000016     release_pem4f.oem4f (.text:ti_sysbios_BIOS_exitFunc__I)
                  00016d82    00000006     mqtt_release.a : client_core.oem4f (.text:qos2PubRxIsDone)
                  00016d88    00000016     sysbios.aem4f : BIOS.obj (.text:ti_sysbios_knl_Clock_start__E)
                  00016d9e    00000002     --HOLE-- [fill = 0]
                  00016da0    00000016                   : BIOS.obj (.text:ti_sysbios_knl_Task_unblock__E)
                  00016db6    00000002     --HOLE-- [fill = 0]
                  00016db8    00000014     dpl_msp432p4x1xi.aem4f : ClockP_tirtos.oem4f (.text:ClockP_usleep)
                  00016dcc    00000014     mqtt_release.a : mqttclient.oem4f (.text:MQTTClient_publish)
                  00016de0    00000014                    : mqtt_net_func.oem4f (.text:MQTTNet_rtcSecs)
                  00016df4    00000014                    : mqtt_common.oem4f (.text:MQTT_packetAckWlistAppend)
                  00016e08    00000014                    : mqtt_common.oem4f (.text:MQTT_packetReset)
                  00016e1c    00000014     msp432p4xx_driverlib.lib : pcm.o (.text:PCM_getPowerState)
                  00016e30    00000014     drivers_msp432p4x1xi.aem4f : PowerMSP432.oem4f (.text:Power_idleFunc)
                  00016e44    00000014                                : SPI.oem4f (.text:SPI_Params_init)
                  00016e58    00000014     slnetsock_release.a : slnetsock.oem4f (.text:SlNetSock_sdsClrAll)
                  00016e6c    00000014     mqtt_release.a : client_core.oem4f (.text:ack1WlRmfree)
                  00016e80    00000014     drivers_msp432p4x1xi.aem4f : UARTMSP432.oem4f (.text:clearTXCPTIFG)
                  00016e94    00000004     --HOLE-- [fill = 0]
                  00016e98    00000014     sysbios.aem4f : BIOS.obj (.text:pthread_attr_setschedparam)
                  00016eac    00000014     rtsv7M4_T_le_v4SPD16_eabi.lib : strcpy.c.obj (.text:strcpy)
                  00016ec0    00000014                                   : strlen.c.obj (.text:strlen)
                  00016ed4    00000014     release_pem4f.oem4f (.text:ti_sysbios_family_arm_m3_Hwi_Object__get__S)
                  00016ee8    00000014     sysbios.aem4f : BIOS.obj (.text:ti_sysbios_family_arm_m3_Hwi_switchFromBootStack__E)
                  00016efc    00000014     release_pem4f.oem4f (.text:ti_sysbios_heaps_HeapMem_Object__get__S)
                  00016f10    00000014     release_pem4f.oem4f (.text:ti_sysbios_knl_Clock_doTick__I)
                  00016f24    00000014     release_pem4f.oem4f (.text:ti_sysbios_knl_Swi_Object__get__S)
                  00016f38    00000014     mqtt_release.a : client_core.oem4f (.text:txPartBufP)
                  00016f4c    00000014                    : client_core.oem4f (.text:txPartReset)
                  00016f60    00000012     drivers_msp432p4x1xi.aem4f : RingBuf.oem4f (.text:RingBuf_construct)
                  00016f72    00000012     dpl_msp432p4x1xi.aem4f : SemaphoreP_tirtos.oem4f (.text:SemaphoreP_pend)
                  00016f84    00000012     slnetifwifi.a : slnetifwifi.obj (.text:SlNetIfWifi_close)
                  00016f96    00000002     --HOLE-- [fill = 0]
                  00016f98    00000012     sysbios.aem4f : BIOS.obj (.text:_pthread_cleanup_pop)
                  00016faa    00000006     mqtt_release.a : client_core.oem4f (.text:qos2PubRxLogup)
                  00016fb0    00000012     sysbios.aem4f : BIOS.obj (.text:_pthread_runStub$43)
                  00016fc2    00000012     mqtt_release.a : client_core.oem4f (.text:mqpDoNotReportCor)
                  00016fd4    00000012                    : client_core.oem4f (.text:sessionResume)
                  00016fe6    00000002     --HOLE-- [fill = 0]
                  00016fe8    00000012     sysbios.aem4f : BIOS.obj (.text:ti_sysbios_family_arm_msp432_Seconds_getTime__E)
                  00016ffa    00000006     mqtt_release.a : client_core.oem4f (.text:qos2PubRxUnlog)
                  00017000    00000012     sysbios.aem4f : BIOS.obj (.text:ti_sysbios_hal_Hwi_Module_startup__E)
                  00017012    00000012     rtsv7M4_T_le_v4SPD16_eabi.lib : wcslen.c.obj (.text:wcslen)
                  00017024    00000012     release_pem4f.oem4f (.text:xdc_runtime_Startup_exec__I)
                  00017036    00000010     dpl_msp432p4x1xi.aem4f : HwiP_tirtos.oem4f (.text:HwiP_Params_init)
                  00017046    00000010     msp432p4xx_driverlib.lib : pcm.o (.text:PCM_gotoLPM4)
                  00017056    00000010                              : pcm.o (.text:PCM_setPowerMode)
                  00017066    00000010                              : pcm.o (.text:PCM_setPowerState)
                  00017076    00000002     --HOLE-- [fill = 0]
                  00017078    00000010     drivers_msp432p4x1xi.aem4f : PowerMSP432.oem4f (.text:PowerMSP432_getNumPerfLevels)
                  00017088    00000010     slnetsock_release.a : slnetsock.oem4f (.text:SlNetSock_secAttribCreate)
                  00017098    00000010     msp432p4xx_driverlib.lib : sysctl_a.o (.text:SysCtl_A_getNMISourceStatus)
                  000170a8    00000010     drivers_msp432p4x1xi.aem4f : Timer.oem4f (.text:Timer_Params_init)
                  000170b8    00000010     simplelink.a : driver.obj (.text:_SlDrvDispatchHttpServerEvents)
                  000170c8    00000010                  : driver.obj (.text:_SlDrvDispatchNetAppRequestEvents)
                  000170d8    00000010                  : driver.obj (.text:_SlDrvIsSpawnOwnGlobalLock)
                  000170e8    00000010     mqtt_release.a : client_core.oem4f (.text:clCtxFreeup)
                  000170f8    00000010                    : client_core.oem4f (.text:isConnected)
                  00017108    00000010                    : client_core.oem4f (.text:isValidUTF8String)
                  00017118    00000010                    : client_core.oem4f (.text:mqpFree)
                  00017128    00000010     sysbios.aem4f : BIOS.obj (.text:pthread_mutexattr_init)
                  00017138    00000010                   : BIOS.obj (.text:pthread_mutexattr_settype)
                  00017148    00000010     drivers_msp432p4x1xi.aem4f : UARTMSP432.oem4f (.text:readBlockingTimeout)
                  00017158    00000010     sysbios.aem4f : BIOS.obj (.text:ti_sysbios_BIOS_exit__E)
                  00017168    00000010                   : BIOS.obj (.text:ti_sysbios_BIOS_setCpuFreq__E)
                  00017178    00000010                   : BIOS.obj (.text:ti_sysbios_BIOS_setThreadType__E)
                  00017188    00000010                   : BIOS.obj (.text:ti_sysbios_BIOS_start__E)
                  00017198    00000010                   : m3_TaskSupport_asm.obj (.text:ti_sysbios_family_arm_m3_TaskSupport_glue)
                  000171a8    00000010                   : BIOS.obj (.text:ti_sysbios_family_arm_msp432_init_Boot_disableWatchdog)
                  000171b8    00000010                   : BIOS.obj (.text:ti_sysbios_gates_GateMutex_Instance_finalize__E)
                  000171c8    00000010     release_pem4f.oem4f (.text:ti_sysbios_knl_Mailbox_Object__get__S)
                  000171d8    00000010     sysbios.aem4f : BIOS.obj (.text:ti_sysbios_knl_Semaphore_Instance_finalize__E)
                  000171e8    00000010                   : BIOS.obj (.text:ti_sysbios_knl_Swi_disable__E)
                  000171f8    00000010     release_pem4f.oem4f (.text:ti_sysbios_knl_Task_Object__get__S)
                  00017208    00000010     sysbios.aem4f : BIOS.obj (.text:ti_sysbios_knl_Task_disable__E)
                  00017218    00000010                   : BIOS.obj (.text:xdc_runtime_Gate_leaveSystem__E)
                  00017228    00000010                   : BIOS.obj (.text:xdc_runtime_Memory_free__E)
                  00017238    00000010                   : BIOS.obj (.text:xdc_runtime_SysCallback_abort__E)
                  00017248    00000010                   : BIOS.obj (.text:xdc_runtime_SysCallback_exit__E)
                  00017258    0000000e     mqtt_release.a : mqttclient.oem4f (.text:MQTTClient_subscribe)
                  00017266    0000000e     simplelink.a : driver.obj (.text:_SlDrvObjLockWaitForever)
                  00017274    0000000e                  : driver.obj (.text:_SlDrvObjUnLock)
                  00017282    0000000e                  : driver.obj (.text:_SlDrvResetCmdExt)
                  00017290    0000000e                  : driver.obj (.text:_SlDrvSyncObjSignal)
                  0001729e    0000000e     mqtt_release.a : mqttclient.oem4f (.text:_sl_ExtLib_AwaitedAckSet)
                  000172ac    0000000e                    : client_core.oem4f (.text:connSentStateRx)
                  000172ba    0000000e     rtsv7M4_T_le_v4SPD16_eabi.lib : copy_decompress_none.c.obj (.text:decompress:none:__TI_decompress_none)
                  000172c8    0000000e     sysbios.aem4f : BIOS.obj (.text:pthread_attr_setdetachstate)
                  000172d6    00000002     --HOLE-- [fill = 0]
                  000172d8    0000000e                   : BIOS.obj (.text:sem_wait)
                  000172e6    0000000e     simplelink.a : cc_pal.obj (.text:spi_Close)
                  000172f4    00000004     --HOLE-- [fill = 0]
                  000172f8    0000000e     sysbios.aem4f : BIOS.obj (.text:ti_sysbios_knl_Idle_loop__E)
                  00017306    0000000c     ti_drivers_config.obj (.text:Board_init)
                  00017312    0000000c     msp432p4xx_driverlib.lib : cpu.o (.text:CPU_cpsid)
                  0001731e    0000000c                              : cpu.o (.text:CPU_cpsie)
                  0001732a    0000000c     dpl_msp432p4x1xi.aem4f : ClockP_tirtos.oem4f (.text:ClockP_delete)
                  00017336    00000002     --HOLE-- [fill = 0]
                  00017338    0000000c                            : ClockP_tirtos.oem4f (.text:ClockP_getSystemTickPeriod)
                  00017344    0000000c                            : HwiP_tirtos.oem4f (.text:HwiP_delete)
                  00017350    0000000c     mqtt_release.a : client_core.oem4f (.text:MQTTClientCore_sendConnectMsg)
                  0001735c    0000000c                    : mqtt_common.oem4f (.text:MQTT_secureConnStructInit)
                  00017368    0000000c     network_if.obj (.text:Network_IF_ResetMCUStateMachine)
                  00017374    0000000c     drivers_msp432p4x1xi.aem4f : PowerMSP432.oem4f (.text:Power_getConstraintMask)
                  00017380    0000000c                                : PowerMSP432.oem4f (.text:Power_getPerformanceLevel)
                  0001738c    0000000c     dpl_msp432p4x1xi.aem4f : SemaphoreP_tirtos.oem4f (.text:SemaphoreP_delete)
                  00017398    0000000c     network_if.obj (.text:SimpleLinkHttpServerEventHandler)
                  000173a4    0000000c     network_if.obj (.text:SimpleLinkNetAppRequestEventHandler)
                  000173b0    0000000c     simplelink.a : device.obj (.text:_SlDeviceResetRequestInitCompletedCB)
                  000173bc    0000000c     rtsv7M4_T_le_v4SPD16_eabi.lib : _lock.c.obj (.text:_register_lock)
                  000173c8    0000000c                                   : _lock.c.obj (.text:_register_unlock)
                  000173d4    0000000c     mqtt_release.a : client_core.oem4f (.text:_txPartReset)
                  000173e0    0000000c     rtsv7M4_T_le_v4SPD16_eabi.lib : copy_zero_init.c.obj (.text:decompress:ZI:__TI_zero_init)
                  000173ec    00000004     --HOLE-- [fill = 0]
                  000173f0    0000000c     sysbios.aem4f : BIOS.obj (.text:pthread_self)
                  000173fc    0000000c     release_pem4f.oem4f (.text:ti_sysbios_family_arm_m3_Hwi_Params__init__S)
                  00017408    0000000c     sysbios.aem4f : BIOS.obj (.text:ti_sysbios_family_arm_m3_Hwi_disableFxn__E)
                  00017414    00000004     --HOLE-- [fill = 0]
                  00017418    0000000c                   : BIOS.obj (.text:ti_sysbios_family_arm_m3_TaskSupport_getStackAlignment__E)
                  00017424    00000004     --HOLE-- [fill = 0]
                  00017428    0000000c                   : BIOS.obj (.text:ti_sysbios_family_arm_msp432_Timer_getMaxTicks__E)
                  00017434    00000004     --HOLE-- [fill = 0]
                  00017438    0000000c                   : BIOS.obj (.text:ti_sysbios_gates_GateHwi_enter__E)
                  00017444    0000000c     release_pem4f.oem4f (.text:ti_sysbios_knl_Clock_Params__init__S)
                  00017450    0000000c     release_pem4f.oem4f (.text:ti_sysbios_knl_Queue_Object__get__S)
                  0001745c    0000000c     release_pem4f.oem4f (.text:ti_sysbios_knl_Semaphore_Params__init__S)
                  00017468    0000000c     release_pem4f.oem4f (.text:ti_sysbios_knl_Task_Params__init__S)
                  00017474    00000004     --HOLE-- [fill = 0]
                  00017478    0000000c     sysbios.aem4f : BIOS.obj (.text:ti_sysbios_knl_Task_self__E)
                  00017484    00000004     --HOLE-- [fill = 0]
                  00017488    0000000c                   : BIOS.obj (.text:ti_sysbios_rts_ti_ReentSupport_taskRegHook__I)
                  00017494    0000000c     mqtt_client_app.obj (.text:timerLEDCallback)
                  000174a0    0000000c     sysbios.aem4f : BIOS.obj (.text:xdc_runtime_Gate_enterSystem__E)
                  000174ac    00000004     --HOLE-- [fill = 0]
                  000174b0    0000000c                   : BIOS.obj (.text:xdc_runtime_Startup_rtsDone__E)
                  000174bc    0000000a     dpl_msp432p4x1xi.aem4f : ClockP_tirtos.oem4f (.text:ClockP_Params_init)
                  000174c6    0000000a     drivers_msp432p4x1xi.aem4f : SPI.oem4f (.text:SPI_close)
                  000174d0    0000000a                                : SPI.oem4f (.text:SPI_transfer)
                  000174da    0000000a     network_if.obj (.text:SimpleLinkNetAppRequestMemFreeEventHandler)
                  000174e4    0000000a     drivers_msp432p4x1xi.aem4f : Timer.oem4f (.text:Timer_close)
                  000174ee    0000000a                                : Timer.oem4f (.text:Timer_getCount)
                  000174f8    0000000a                                : Timer.oem4f (.text:Timer_start)
                  00017502    0000000a                                : Timer.oem4f (.text:Timer_stop)
                  0001750c    0000000a                                : UART.oem4f (.text:UART_control)
                  00017516    0000000a                                : UART.oem4f (.text:UART_readPolling)
                  00017520    0000000a                                : UART.oem4f (.text:UART_writePolling)
                  0001752a    00000006     --HOLE-- [fill = 0]
                  00017530    0000000a     sysbios.aem4f : BIOS.obj (.text:sem_destroy)
                  0001753a    00000006     --HOLE-- [fill = 0]
                  00017540    0000000a                   : BIOS.obj (.text:sem_post)
                  0001754a    0000000a     simplelink.a : device.obj (.text:sl_Task)
                  00017554    0000000a     release_pem4f.oem4f (.text:xdc_runtime_IHeap_alloc)
                  0001755e    0000000a     release_pem4f.oem4f (.text:xdc_runtime_IHeap_free)
                  00017568    00000008     mqtt_release.a : client_core.oem4f (.text:MQTTClientCore_sendSubMsg)
                  00017570    00000008                    : mqtt_net_func.oem4f (.text:MQTTNet_tcpSend)
                  00017578    00000008     dpl_msp432p4x1xi.aem4f : SemaphoreP_tirtos.oem4f (.text:SemaphoreP_Params_init)
                  00017580    00000008     simplelink.a : cc_pal.obj (.text:TimerGetCurrentTimestamp)
                  00017588    00000008     drivers_msp432p4x1xi.aem4f : SPIMSP432DMA.oem4f (.text:blockingTransferCallback)
                  00017590    00000008     sysbios.aem4f : BIOS.obj (.text:pthread_attr_setstacksize)
                  00017598    00000008                   : BIOS.obj (.text:pthread_mutex_lock)
                  000175a0    00000008     drivers_msp432p4x1xi.aem4f : UARTMSP432.oem4f (.text:readSemCallback)
                  000175a8    00000008     sysbios.aem4f : BIOS.obj (.text:sem_getvalue)
                  000175b0    00000008                   : BIOS.obj (.text:ti_sysbios_family_arm_m3_Hwi_doSwiRestore__I)
                  000175b8    00000008                   : BIOS.obj (.text:ti_sysbios_family_arm_m3_Hwi_startup__E)
                  000175c0    00000008     mqtt_release.a : client_core.oem4f (.text:txPartAddup)
                  000175c8    00000008     drivers_msp432p4x1xi.aem4f : UARTMSP432.oem4f (.text:txcptEnabledStatus)
                  000175d0    00000008                                : UARTMSP432.oem4f (.text:writeSemCallback)
                  000175d8    00000006     sysbios.aem4f : BIOS.obj (.text:ti_sysbios_family_arm_m3_Hwi_doTaskRestore__I)
                  000175de    00000002     --HOLE-- [fill = 0]
                  000175e0    00000006                   : BIOS.obj (.text:ti_sysbios_family_arm_m3_Hwi_restoreFxn__E)
                  000175e6    00000002     --HOLE-- [fill = 0]
                  000175e8    00000006                   : BIOS.obj (.text:ti_sysbios_gates_GateHwi_leave__E)
                  000175ee    00000002     --HOLE-- [fill = 0]
                  000175f0    00000006                   : BIOS.obj (.text:ti_sysbios_heaps_HeapMem_isBlocking__E)
                  000175f6    00000002     --HOLE-- [fill = 0]
                  000175f8    00000006                   : BIOS.obj (.text:ti_sysbios_knl_Clock_stop__E)
                  000175fe    00000002     --HOLE-- [fill = 0]
                  00017600    00000006                   : BIOS.obj (.text:ti_sysbios_knl_Queue_Instance_init__E)
                  00017606    00000002     --HOLE-- [fill = 0]
                  00017608    00000006                   : BIOS.obj (.text:ti_sysbios_knl_Swi_startup__E)
                  0001760e    00000002     --HOLE-- [fill = 0]
                  00017610    00000006                   : BIOS.obj (.text:xdc_runtime_System_Module_startup__E)
                  00017616    00000002     --HOLE-- [fill = 0]
                  00017618    00000004                   : BIOS.obj (.text:__aeabi_errno_addr)
                  0001761c    00000004     --HOLE-- [fill = 0]
                  00017620    00000004                   : BIOS.obj (.text:ti_sysbios_gates_GateHwi_query__E)
                  00017624    00000004     --HOLE-- [fill = 0]
                  00017628    00000004                   : BIOS.obj (.text:ti_sysbios_gates_GateMutex_query__E)
                  0001762c    00000004     --HOLE-- [fill = 0]
                  00017630    00000004                   : BIOS.obj (.text:ti_sysbios_knl_Clock_setTimeout__E)
                  00017634    00000004     --HOLE-- [fill = 0]
                  00017638    00000004                   : BIOS.obj (.text:ti_sysbios_knl_Task_startup__E)
                  0001763c    00000004     --HOLE-- [fill = 0]
                  00017640    00000002                   : BIOS.obj (.text:ti_sysbios_BIOS_linkedWithIncorrectBootLibrary__E)
                  00017642    00000006     --HOLE-- [fill = 0]
                  00017648    00000002                   : BIOS.obj (.text:ti_sysbios_gates_GateHwi_Instance_init__E)
                  0001764a    00000006     --HOLE-- [fill = 0]
                  00017650    00000002                   : BIOS.obj (.text:ti_sysbios_knl_Clock_logTick__E)
                  00017652    00000006     --HOLE-- [fill = 0]
                  00017658    00000002                   : BIOS.obj (.text:xdc_runtime_SysCallback_defaultAbort)
                  0001765a    00000006     --HOLE-- [fill = 0]
                  00017660    00000002                   : BIOS.obj (.text:xdc_runtime_SysCallback_defaultExit)
                  00017662    00000006     --HOLE-- [fill = 0]
                  00017668    00000002                   : BIOS.obj (.text:xdc_runtime_System_abortSpin__E)
                  0001766a    00000006     --HOLE-- [fill = 0]
                  00017670    00000002                   : BIOS.obj (.text:xdc_runtime_System_exitSpin__E)

.const     0    00017674    00000b1c     
                  00017674    00000101     rtsv7M4_T_le_v4SPD16_eabi.lib : ctype.c.obj (.const:.string:_ctypes_)
                  00017775    00000001     release_pem4f.oem4f (.const:xdc_runtime_Error_policy__C)
                  00017776    00000070     simplelink.a : driver.obj (.const:OpcodeTranslateTable)
                  000177e6    00000002     mqtt_release.a : client_core.oem4f (.const:.string:MQTTClientCore_loopData)
                  000177e8    00000060     rtsv7M4_T_le_v4SPD16_eabi.lib : mktime.c.obj (.const:$O1$$)
                  00017848    00000050     simplelink.a : driver.obj (.const:_SlActionLookupTable)
                  00017898    00000050     drivers_msp432p4x1xi.aem4f : TimerMSP432.oem4f (.const:timerADividers)
                  000178e8    00000040     ti_drivers_config.obj (.const:uartMSP432Baudrates)
                  00017928    0000003c     release_pem4f.oem4f (.const:ti_sysbios_knl_Task_Object__PARAMS__C)
                  00017964    00000038     ti_drivers_config.obj (.const:PowerMSP432_config)
                  0001799c    00000034     release_pem4f.oem4f (.const:ti_sysbios_knl_Mailbox_Object__PARAMS__C)
                  000179d0    00000030     mqtt_client_app.obj (.const:.string)
                  00017a00    00000030     release_pem4f.oem4f (.const:ti_sysbios_family_arm_m3_Hwi_Object__PARAMS__C)
                  00017a30    0000002c     ti_drivers_config.obj (.const:uartMSP432HWAttrs)
                  00017a5c    00000028     drivers_msp432p4x1xi.aem4f : UARTMSP432.oem4f (.const:UARTMSP432_fxnTable)
                  00017a84    00000028     release_pem4f.oem4f (.const:ti_sysbios_heaps_HeapMem_Module__FXNS__C)
                  00017aac    00000024     drivers_msp432p4x1xi.aem4f : UART.oem4f (.const:UART_defaultParams)
                  00017ad0    00000024     ti_drivers_config.obj (.const:spiMSP432DMAHWAttrs)
                  00017af4    00000024     release_pem4f.oem4f (.const:ti_sysbios_gates_GateHwi_Module__FXNS__C)
                  00017b18    00000024     release_pem4f.oem4f (.const:ti_sysbios_gates_GateMutex_Module__FXNS__C)
                  00017b3c    00000024     release_pem4f.oem4f (.const:ti_sysbios_heaps_HeapMem_Object__PARAMS__C)
                  00017b60    00000024     release_pem4f.oem4f (.const:ti_sysbios_knl_Clock_Object__PARAMS__C)
                  00017b84    00000024     release_pem4f.oem4f (.const:ti_sysbios_knl_Semaphore_Object__PARAMS__C)
                  00017ba8    00000024     release_pem4f.oem4f (.const:xdc_runtime_Startup_sfxnTab__A)
                  00017bcc    00000020     simplelink.a : driver.obj (.const:RxMsgClassLUT)
                  00017bec    00000020     drivers_msp432p4x1xi.aem4f : SPI.oem4f (.const:SPI_defaultParams)
                  00017c0c    00000020     simplelink.a : device.obj (.const:StartResponseLUT)
                  00017c2c    00000020     ti_drivers_config.obj (.const:TimerMSP432HWAttrs)
                  00017c4c    00000020     drivers_msp432p4x1xi.aem4f : TimerMSP432.oem4f (.const:TimerMSP432_Timer32_fxnTable)
                  00017c6c    00000020                                : UARTMSP432.oem4f (.const:staticFxnTable)
                  00017c8c    00000020     release_pem4f.oem4f (.const:ti_sysbios_family_arm_m3_Hwi_Object__DESC__C)
                  00017cac    00000020     release_pem4f.oem4f (.const:ti_sysbios_gates_GateHwi_Object__DESC__C)
                  00017ccc    00000020     release_pem4f.oem4f (.const:ti_sysbios_gates_GateMutex_Object__DESC__C)
                  00017cec    00000020     release_pem4f.oem4f (.const:ti_sysbios_heaps_HeapMem_Object__DESC__C)
                  00017d0c    00000020     release_pem4f.oem4f (.const:ti_sysbios_knl_Clock_Object__DESC__C)
                  00017d2c    00000020     release_pem4f.oem4f (.const:ti_sysbios_knl_Mailbox_Object__DESC__C)
                  00017d4c    00000020     release_pem4f.oem4f (.const:ti_sysbios_knl_Queue_Object__DESC__C)
                  00017d6c    00000020     release_pem4f.oem4f (.const:ti_sysbios_knl_Semaphore_Object__DESC__C)
                  00017d8c    00000020     release_pem4f.oem4f (.const:ti_sysbios_knl_Task_Object__DESC__C)
                  00017dac    00000018     drivers_msp432p4x1xi.aem4f : SPIMSP432DMA.oem4f (.const:SPIMSP432DMA_fxnTable)
                  00017dc4    00000018     ti_drivers_config.obj (.const:Timer_config)
                  00017ddc    00000018     release_pem4f.oem4f (.const:ti_sysbios_gates_GateHwi_Object__PARAMS__C)
                  00017df4    00000018     release_pem4f.oem4f (.const:ti_sysbios_gates_GateMutex_Object__PARAMS__C)
                  00017e0c    00000018     release_pem4f.oem4f (.const:ti_sysbios_knl_Queue_Object__PARAMS__C)
                  00017e24    00000018     release_pem4f.oem4f (.const:ti_sysbios_knl_Task_hooks__A)
                  00017e3c    00000017     network_if.obj (.const:.string:$P$T2$3)
                  00017e53    00000016     network_if.obj (.const:.string:$P$T0$1)
                  00017e69    00000015     network_if.obj (.const:.string:$P$T1$2)
                  00017e7e    00000002     release_pem4f.oem4f (.const:ti_sysbios_family_arm_m3_Hwi_Module__id__C)
                  00017e80    00000014     mqtt_client_app.obj (.const:$P$T0$1)
                  00017e94    00000014     simplelink.a : device.obj (.const:$P$T0$1)
                  00017ea8    00000014                  : driver.obj (.const:$P$T0$1)
                  00017ebc    00000014                  : fs.obj (.const:$P$T0$1)
                  00017ed0    00000014                  : driver.obj (.const:$P$T2$3)
                  00017ee4    00000014     ti_drivers_config.obj (.const:GPIOMSP432_config)
                  00017ef8    00000014     slnetifwifi.a : slnetifwifi.obj (.const:StartSecOptName)
                  00017f0c    00000012     release_pem4f.oem4f (.const:xdc_runtime_Startup_sfxnRts__A)
                  00017f1e    00000002     release_pem4f.oem4f (.const:ti_sysbios_heaps_HeapMem_Module__id__C)
                  00017f20    00000010     mqtt_release.a : mqtt_net_func.oem4f (.const:$P$T0$1)
                  00017f30    00000010                    : mqtt_net_func.oem4f (.const:$P$T1$2)
                  00017f40    00000010     network_if.obj (.const:$P$T3$4)
                  00017f50    00000010     simplelink.a : sl_socket.obj (.const:_SlCtrlSockAddr)
                  00017f60    00000010                  : sl_socket.obj (.const:_SlCtrlSockRelease)
                  00017f70    00000010     slnetifwifi.a : slnetifwifi.obj (.const:socketType)
                  00017f80    0000000c     ti_drivers_config.obj (.const:SPI_config)
                  00017f8c    0000000c     ti_drivers_config.obj (.const:UART_config)
                  00017f98    0000000c     drivers_msp432p4x1xi.aem4f : Timer.oem4f (.const:defaultParams)
                  00017fa4    0000000c                                : TimerMSP432.oem4f (.const:timer32Dividers)
                  00017fb0    0000000c     ti_drivers_config.obj (.const:udmaMSP432HWAttrs)
                  00017fbc    0000000c     ti_drivers_config.obj (.const:wifiSimplelinkHWAttrs)
                  00017fc8    0000000c     release_pem4f.oem4f (.const:xdc_runtime_Startup_firstFxns__A)
                  00017fd4    00000008     ti_drivers_config.obj (.const:UDMAMSP432_config)
                  00017fdc    00000008     drivers_msp432p4x1xi.aem4f : SPIMSP432DMA.oem4f (.const:frameFormat)
                  00017fe4    00000008     simplelink.a : driver.obj (.const:g_H2NCnysPattern)
                  00017fec    00000008                  : driver.obj (.const:g_H2NSyncPattern)
                  00017ff4    00000008     release_pem4f.oem4f (.const)
                  00017ffc    00000008     release_pem4f.oem4f (.const:ti_sysbios_knl_Idle_funcList__A)
                  00018004    00000008     release_pem4f.oem4f (.const:ti_sysbios_knl_Idle_funcList__C)
                  0001800c    00000008     release_pem4f.oem4f (.const:ti_sysbios_knl_Task_hooks__C)
                  00018014    00000008     release_pem4f.oem4f (.const:xdc_runtime_Startup_firstFxns__C)
                  0001801c    00000008     release_pem4f.oem4f (.const:xdc_runtime_Startup_lastFxns__C)
                  00018024    00000006     drivers_msp432p4x1xi.aem4f : GPIOMSP432.oem4f (.const:.string:interruptType)
                  0001802a    00000006                                : GPIOMSP432.oem4f (.const:.string:portInterruptIds)
                  00018030    00000006     ti_drivers_config.obj (.const)
                  00018036    00000005     mqtt_release.a : client_core.oem4f (.const:.string:$P$T2$2)
                  0001803b    00000005     drivers_msp432p4x1xi.aem4f : UARTMSP432.oem4f (.const:.string:parityTypes)
                  00018040    00000004     simplelink.a : sl_socket.obj (.const:$P$T0$1)
                  00018044    00000004                  : wlan.obj (.const:$P$T0$1)
                  00018048    00000004                  : sl_socket.obj (.const:$P$T1$2)
                  0001804c    00000004                  : wlan.obj (.const:$P$T1$2)
                  00018050    00000004                  : sl_socket.obj (.const:$P$T2$3)
                  00018054    00000004     mqtt_release.a : client_core.oem4f (.const:.string:$P$T1$1)
                  00018058    00000004     ti_drivers_config.obj (.const:WiFi_config)
                  0001805c    00000004     simplelink.a : sl_socket.obj (.const:_SlAcceptCmdCtrl)
                  00018060    00000004                  : device.obj (.const:_SlDeviceGetCmdCtrl)
                  00018064    00000004                  : fs.obj (.const:_SlFsCloseCmdCtrl)
                  00018068    00000004                  : fs.obj (.const:_SlFsOpenCmdCtrl)
                  0001806c    00000004                  : fs.obj (.const:_SlFsWriteCmdCtrl)
                  00018070    00000004                  : netapp.obj (.const:_SlGetHostByNameCtrl)
                  00018074    00000004                  : sl_socket.obj (.const:_SlGetSockOptCmdCtrl)
                  00018078    00000004                  : sl_socket.obj (.const:_SlListenCmdCtrl)
                  0001807c    00000004                  : netapp.obj (.const:_SlNetAppSendResponseCmdCtrl)
                  00018080    00000004                  : netapp.obj (.const:_SlNetAppSendTokenValueCmdCtrl)
                  00018084    00000004                  : netcfg.obj (.const:_SlNetCfgGetCmdCtrl)
                  00018088    00000004                  : sl_socket.obj (.const:_SlRecvCmdCtrl)
                  0001808c    00000004                  : sl_socket.obj (.const:_SlRecvfomCmdCtrl)
                  00018090    00000004                  : sl_socket.obj (.const:_SlSelectCmdCtrl)
                  00018094    00000004                  : sl_socket.obj (.const:_SlSendCmdCtrl)
                  00018098    00000004                  : sl_socket.obj (.const:_SlSetSockOptCmdCtrl)
                  0001809c    00000004                  : sl_socket.obj (.const:_SlSockCloseCmdCtrl)
                  000180a0    00000004                  : sl_socket.obj (.const:_SlSockSocketCmdCtrl)
                  000180a4    00000004                  : device.obj (.const:_SlStopCmdCtrl)
                  000180a8    00000004                  : wlan.obj (.const:_SlWlanCfgGetCmdCtrl)
                  000180ac    00000004                  : wlan.obj (.const:_SlWlanSetModeCmdCtrl)
                  000180b0    00000004     drivers_msp432p4x1xi.aem4f : UARTMSP432.oem4f (.const:stopBits)
                  000180b4    00000004     release_pem4f.oem4f (.const:ti_sysbios_family_arm_m3_Hwi_E_alreadyDefined__C)
                  000180b8    00000004     release_pem4f.oem4f (.const:ti_sysbios_family_arm_m3_Hwi_E_badIntNum__C)
                  000180bc    00000004     release_pem4f.oem4f (.const:ti_sysbios_family_arm_m3_Hwi_NUM_INTERRUPTS__C)
                  000180c0    00000004     release_pem4f.oem4f (.const:ti_sysbios_family_arm_m3_Hwi_Object__count__C)
                  000180c4    00000004     release_pem4f.oem4f (.const:ti_sysbios_family_arm_m3_Hwi_ccr__C)
                  000180c8    00000004     release_pem4f.oem4f (.const:ti_sysbios_family_arm_m3_Hwi_excHandlerFunc__C)
                  000180cc    00000004     release_pem4f.oem4f (.const:ti_sysbios_family_arm_m3_Hwi_nullIsrFunc__C)
                  000180d0    00000004     release_pem4f.oem4f (.const:ti_sysbios_family_arm_m3_Hwi_priGroup__C)
                  000180d4    00000004     release_pem4f.oem4f (.const:ti_sysbios_family_arm_m3_Hwi_swiDisable__C)
                  000180d8    00000004     release_pem4f.oem4f (.const:ti_sysbios_family_arm_m3_Hwi_swiRestore__C)
                  000180dc    00000004     release_pem4f.oem4f (.const:ti_sysbios_family_arm_m3_TaskSupport_stackAlignment__C)
                  000180e0    00000004     release_pem4f.oem4f (.const:ti_sysbios_family_arm_msp432_Timer_numTimerDevices__C)
                  000180e4    00000004     release_pem4f.oem4f (.const:ti_sysbios_family_arm_msp432_Timer_startupNeeded__C)
                  000180e8    00000004     release_pem4f.oem4f (.const:ti_sysbios_gates_GateMutex_Instance_State_sem__O)
                  000180ec    00000004     release_pem4f.oem4f (.const:ti_sysbios_heaps_HeapMem_E_memory__C)
                  000180f0    00000004     release_pem4f.oem4f (.const:ti_sysbios_heaps_HeapMem_Module__gateObj__C)
                  000180f4    00000004     release_pem4f.oem4f (.const:ti_sysbios_heaps_HeapMem_Object__count__C)
                  000180f8    00000004     release_pem4f.oem4f (.const:ti_sysbios_heaps_HeapMem_primaryHeapBaseAddr__C)
                  000180fc    00000004     release_pem4f.oem4f (.const:ti_sysbios_heaps_HeapMem_primaryHeapEndAddr__C)
                  00018100    00000004     release_pem4f.oem4f (.const:ti_sysbios_heaps_HeapMem_reqAlign__C)
                  00018104    00000004     release_pem4f.oem4f (.const:ti_sysbios_knl_Clock_Module_State_clockQ__O)
                  00018108    00000004     release_pem4f.oem4f (.const:ti_sysbios_knl_Clock_tickPeriod__C)
                  0001810c    00000004     release_pem4f.oem4f (.const:ti_sysbios_knl_Mailbox_Instance_State_dataQue__O)
                  00018110    00000004     release_pem4f.oem4f (.const:ti_sysbios_knl_Mailbox_Instance_State_dataSem__O)
                  00018114    00000004     release_pem4f.oem4f (.const:ti_sysbios_knl_Mailbox_Instance_State_freeQue__O)
                  00018118    00000004     release_pem4f.oem4f (.const:ti_sysbios_knl_Mailbox_Instance_State_freeSem__O)
                  0001811c    00000004     release_pem4f.oem4f (.const:ti_sysbios_knl_Mailbox_Object__count__C)
                  00018120    00000004     release_pem4f.oem4f (.const:ti_sysbios_knl_Mailbox_maxTypeAlign__C)
                  00018124    00000004     release_pem4f.oem4f (.const:ti_sysbios_knl_Semaphore_Instance_State_pendQ__O)
                  00018128    00000004     release_pem4f.oem4f (.const:ti_sysbios_knl_Swi_Object__count__C)
                  0001812c    00000004     release_pem4f.oem4f (.const:ti_sysbios_knl_Task_Module_State_inactiveQ__O)
                  00018130    00000004     release_pem4f.oem4f (.const:ti_sysbios_knl_Task_Object__count__C)
                  00018134    00000004     release_pem4f.oem4f (.const:ti_sysbios_knl_Task_Object__heap__C)
                  00018138    00000004     release_pem4f.oem4f (.const:ti_sysbios_knl_Task_allBlockedFunc__C)
                  0001813c    00000004     release_pem4f.oem4f (.const:ti_sysbios_knl_Task_defaultStackHeap__C)
                  00018140    00000004     release_pem4f.oem4f (.const:ti_sysbios_knl_Task_defaultStackSize__C)
                  00018144    00000004     release_pem4f.oem4f (.const:ti_sysbios_knl_Task_numConstructedTasks__C)
                  00018148    00000004     release_pem4f.oem4f (.const:xdc_runtime_Error_E_memory__C)
                  0001814c    00000004     release_pem4f.oem4f (.const:xdc_runtime_Error_policyFxn__C)
                  00018150    00000004     release_pem4f.oem4f (.const:xdc_runtime_IGateProvider_Interface__BASE__C)
                  00018154    00000004     release_pem4f.oem4f (.const:xdc_runtime_IHeap_Interface__BASE__C)
                  00018158    00000004     release_pem4f.oem4f (.const:xdc_runtime_IModule_Interface__BASE__C)
                  0001815c    00000004     release_pem4f.oem4f (.const:xdc_runtime_Memory_defaultHeapInstance__C)
                  00018160    00000004     release_pem4f.oem4f (.const:xdc_runtime_Startup_execImpl__C)
                  00018164    00000004     release_pem4f.oem4f (.const:xdc_runtime_Startup_maxPasses__C)
                  00018168    00000004     release_pem4f.oem4f (.const:xdc_runtime_Startup_sfxnRts__C)
                  0001816c    00000004     release_pem4f.oem4f (.const:xdc_runtime_Startup_sfxnTab__C)
                  00018170    00000004     release_pem4f.oem4f (.const:xdc_runtime_SysCallback_abortFxn__C)
                  00018174    00000004     release_pem4f.oem4f (.const:xdc_runtime_SysCallback_exitFxn__C)
                  00018178    00000004     release_pem4f.oem4f (.const:xdc_runtime_System_Module__gateObj__C)
                  0001817c    00000004     release_pem4f.oem4f (.const:xdc_runtime_System_abortFxn__C)
                  00018180    00000004     release_pem4f.oem4f (.const:xdc_runtime_System_exitFxn__C)
                  00018184    00000004     release_pem4f.oem4f (.const:xdc_runtime_System_maxAtexitHandlers__C)
                  00018188    00000003     mqtt_release.a : mqttclient.oem4f (.const:.string:$P$T0$1)
                  0001818b    00000003                    : mqttclient.oem4f (.const:MQTTClient_qos)
                  0001818e    00000002     release_pem4f.oem4f (.const:xdc_runtime_Memory_Module__id__C)

.cinit     0    00018190    00000358     
                  00018190    00000331     (.cinit..data.load) [load image, compression = lzss]
                  000184c1    00000003     --HOLE-- [fill = 0]
                  000184c4    0000000c     (__TI_handler_table)
                  000184d0    00000008     (.cinit..bss.load) [load image, compression = zero_init]
                  000184d8    00000010     (__TI_cinit_table)

.init_array 
*          0    00000000    00000000     UNINITIALIZED

.bss       0    20008200    0000190a     UNINITIALIZED
                  20008200    00000800     mqtt_release.a : mqttclient.oem4f (.bss:MQTTClient_buffer)
                  20008a00    000003fc     (.common:g_CB)
                  20008dfc    000002b0     (.common:clients)
                  200090ac    00000004     drivers_msp432p4x1xi.aem4f : GPIOMSP432.oem4f (.bss)
                  200090b0    00000200     release_pem4f.oem4f (.bss:taskStackSection)
                  200092b0    00000140     (.common:ti_sysbios_family_arm_m3_Hwi_dispatchTable)
                  200093f0    00000010     drivers_msp432p4x1xi.aem4f : UDMAMSP432.oem4f (.bss:hwiHandles)
                  20009400    00000100     ti_drivers_config.obj (.bss:dmaControlTable)
                  20009500    000000d0     mqtt_release.a : mqttclient.oem4f (.bss:MQTTClient_ctx)
                  200095d0    000000b4     (.common:savedate)
                  20009684    00000080     slnetsock_release.a : slnetsock.oem4f (.bss:VirtualSockets)
                  20009704    00000080     (.common:uartMSP432Objects)
                  20009784    00000068     (.common:timerMSP432Objects)
                  200097ec    00000064     (.common:msg_control)
                  20009850    00000064     (.common:msg_info_data)
                  200098b4    00000048     mqtt_release.a : mqttclient.oem4f (.bss:MQTTClient_packet)
                  200098fc    00000048     (.common:spiMSP432DMAObjects)
                  20009944    00000030     drivers_msp432p4x1xi.aem4f : GPIOMSP432.oem4f (.bss:gpioCallbackInfo)
                  20009974    0000002c     (.common:GlobalLockObj)
                  200099a0    00000028     (.common:g_SlInternalSpawnCB)
                  200099c8    00000024     (.common:g_ucConnectionSSID)
                  200099ec    00000020                                : UDMAMSP432.oem4f (.bss:hwiFxnArgs)
                  20009a0c    00000020                                : UDMAMSP432.oem4f (.bss:hwiFxnHandlers)
                  20009a2c    00000020     ti_drivers_config.obj (.bss:uartMSP432RingBuffer0)
                  20009a4c    0000001c     slnetsock_release.a : slnetsock.oem4f (.bss:VirtualSocketSem)
                  20009a68    00000018     mqtt_release.a : client_core.oem4f (.bss:MQTTClientCore_recvHvec)
                  20009a80    00000014     (.common:data_info)
                  20009a94    00000010     (.common:MQTTClient_Lib_CB)
                  20009aa4    0000000c     (.common:DeviceCB)
                  20009ab0    0000000c     (.common:Msg)
                  20009abc    0000000c     (.common:params1)
                  20009ac8    00000008     msp432p4xx_driverlib.lib : cs.o (.bss)
                  20009ad0    00000008     (.common:g_ucConnectionBSSID)
                  20009ad8    00000004     simplelink.a : cc_pal.obj (.bss)
                  20009adc    00000004     drivers_msp432p4x1xi.aem4f : TimerMSP432.oem4f (.bss:timerState)
                  20009ae0    00000004     uart_term.obj (.bss)
                  20009ae4    00000004     (.common:ClockP_tickPeriod)
                  20009ae8    00000004     (.common:appQueue)
                  20009aec    00000004     (.common:connected)
                  20009af0    00000004     (.common:deinit)
                  20009af4    00000004     (.common:mqttClientHandle)
                  20009af8    00000004     (.common:ti_sysbios_knl_Task_Instance_State_0_hookEnv__A)
                  20009afc    00000004     (.common:timer0)
                  20009b00    00000004     (.common:timer1)
                  20009b04    00000002     (.common:MQTTClient_waitSecs)
                  20009b06    00000002     (.common:g_usConnectIndex)
                  20009b08    00000001     (.common:RxIrqCnt)
                  20009b09    00000001     (.common:udmaMSP432Object)

.data      0    20009b0c    00000854     UNINITIALIZED
                  20009b0c    00000140     drivers_msp432p4x1xi.aem4f : PowerMSP432.oem4f (.data:PowerMSP432_perfLevels)
                  20009c4c    00000088     sysbios.aem4f : BIOS.obj (.data:$O1$$)
                  20009cd4    00000080     release_pem4f.oem4f (.data:ti_sysbios_knl_Swi_Module_State_0_readyQ__A)
                  20009d54    00000080     release_pem4f.oem4f (.data:ti_sysbios_knl_Task_Module_State_0_readyQ__A)
                  20009dd4    00000058     slnetifwifi.a : slnetifwifi.obj (.data:SlNetIfConfigWifi)
                  20009e2c    00000054     release_pem4f.oem4f (.data:ti_sysbios_gates_GateMutex_Object__table__V)
                  20009e80    0000004c     release_pem4f.oem4f (.data:ti_sysbios_knl_Task_Object__table__V)
                  20009ecc    00000044     release_pem4f.oem4f (.data:ti_sysbios_family_arm_msp432_Timer_Object__table__V)
                  20009f10    00000044     release_pem4f.oem4f (.data:ti_sysbios_knl_Task_Module__state__V)
                  20009f54    00000035     mqtt_release.a : client_core.oem4f (.data)
                  20009f89    00000002     drivers_msp432p4x1xi.aem4f : GPIOMSP432.oem4f (.data)
                  20009f8b    00000001                                : SPI.oem4f (.data)
                  20009f8c    00000034     release_pem4f.oem4f (.data:ti_sysbios_family_arm_m3_Hwi_Module__state__V)
                  20009fc0    00000030     release_pem4f.oem4f (.data:ti_sysbios_knl_Swi_Object__table__V)
                  20009ff0    0000002c     drivers_msp432p4x1xi.aem4f : PowerMSP432.oem4f (.data:PowerMSP432_module)
                  2000a01c    0000002c     release_pem4f.oem4f (.data:ti_sysbios_knl_Clock_Module__state__V)
                  2000a048    00000028     mqtt_release.a : mqttclient.oem4f (.data:MQTTClient_net)
                  2000a070    00000024     simplelink.a : eventreg.obj (.data:g_LibsEvents)
                  2000a094    00000024                  : eventreg.obj (.data:g_UserEvents)
                  2000a0b8    00000024     ti_drivers_config.obj (.data:gpioCallbackFunctions)
                  2000a0dc    00000024     ti_drivers_config.obj (.data:gpioPinConfigs)
                  2000a100    00000024     release_pem4f.oem4f (.data:ti_sysbios_BIOS_Module__state__V)
                  2000a124    00000020     release_pem4f.oem4f (.data:ti_sysbios_family_arm_msp432_Timer_Module_State_0_device__A)
                  2000a144    00000020     release_pem4f.oem4f (.data:xdc_runtime_Error_IgnoreBlock)
                  2000a164    0000001c     mqtt_if.obj (.data:mMQTTContext)
                  2000a180    0000001c     release_pem4f.oem4f (.data:ti_sysbios_knl_Swi_Module__state__V)
                  2000a19c    00000018     mqtt_client_app.obj (.data:mqttClientParams)
                  2000a1b4    00000018     mqtt_client_app.obj (.data:mqttConnParams)
                  2000a1cc    00000018     release_pem4f.oem4f (.data:ti_sysbios_family_arm_m3_Hwi_Object__table__V)
                  2000a1e4    00000018     release_pem4f.oem4f (.data:ti_sysbios_heaps_HeapMem_Object__table__V)
                  2000a1fc    00000018     drivers_msp432p4x1xi.aem4f : TimerMSP432.oem4f (.data:upConfig)
                  2000a214    00000010     rtsv7M4_T_le_v4SPD16_eabi.lib : tmzone.c.obj (.data:_tz)
                  2000a224    00000010     drivers_msp432p4x1xi.aem4f : UDMAMSP432.oem4f (.data)
                  2000a234    00000010     release_pem4f.oem4f (.data:ti_sysbios_family_arm_msp432_Timer_Module_State_0_handles__A)
                  2000a244    0000000d     mqtt_client_app.obj (.data:ClientId)
                  2000a251    00000001     drivers_msp432p4x1xi.aem4f : Timer.oem4f (.data)
                  2000a252    00000002     release_pem4f.oem4f (.data:ti_sysbios_family_arm_m3_Hwi_Module_State_0_excActive__A)
                  2000a254    0000000c     dht11.obj (.data)
                  2000a260    0000000c     mqtt_client_app.obj (.data:mqttWillParams)
                  2000a26c    0000000c     network_if.obj (.data)
                  2000a278    0000000c     simplelink.a : driver.obj (.data)
                  2000a284    0000000c     release_pem4f.oem4f (.data:ti_sysbios_family_arm_msp432_ClockFreqs_Module__state__V)
                  2000a290    0000000c     release_pem4f.oem4f (.data:ti_sysbios_family_arm_msp432_Timer_Module__state__V)
                  2000a29c    00000009     mqtt_release.a : client_core.oem4f (.data:MQTTClientCore_mqtt310)
                  2000a2a5    00000001     drivers_msp432p4x1xi.aem4f : UART.oem4f (.data)
                  2000a2a6    00000001     slnetsock_release.a : slnetsock.oem4f (.data)
                  2000a2a7    00000001     --HOLE--
                  2000a2a8    00000009     mqtt_release.a : mqttclient.oem4f (.data)
                  2000a2b1    00000003     --HOLE--
                  2000a2b4    00000008     rtsv7M4_T_le_v4SPD16_eabi.lib : _lock.c.obj (.data:$O1$$)
                  2000a2bc    00000008     mqtt_release.a : mqttclient.oem4f (.data:MQTTClient_clientCfg)
                  2000a2c4    00000008     mqtt_client_app.obj (.data:mqttInitParams)
                  2000a2cc    00000008     simplelink.a : cc_pal.obj (.data)
                  2000a2d4    00000008     release_pem4f.oem4f (.data:ti_sysbios_family_arm_m3_Hwi_Module__root__V)
                  2000a2dc    00000008     release_pem4f.oem4f (.data:ti_sysbios_gates_GateHwi_Module__root__V)
                  2000a2e4    00000008     release_pem4f.oem4f (.data:ti_sysbios_gates_GateMutex_Module__root__V)
                  2000a2ec    00000008     release_pem4f.oem4f (.data:ti_sysbios_heaps_HeapMem_Module__root__V)
                  2000a2f4    00000008     release_pem4f.oem4f (.data:ti_sysbios_knl_Clock_Module__root__V)
                  2000a2fc    00000008     release_pem4f.oem4f (.data:ti_sysbios_knl_Mailbox_Module__root__V)
                  2000a304    00000008     release_pem4f.oem4f (.data:ti_sysbios_knl_Queue_Module__root__V)
                  2000a30c    00000008     release_pem4f.oem4f (.data:ti_sysbios_knl_Semaphore_Module__root__V)
                  2000a314    00000008     release_pem4f.oem4f (.data:ti_sysbios_knl_Task_Module__root__V)
                  2000a31c    00000008     release_pem4f.oem4f (.data:xdc_runtime_Startup_Module__state__V)
                  2000a324    00000008     release_pem4f.oem4f (.data:xdc_runtime_System_Module_State_0_atexitHandlers__A)
                  2000a32c    00000008     release_pem4f.oem4f (.data:xdc_runtime_System_Module__state__V)
                  2000a334    00000007     mqtt_release.a : client_core.oem4f (.data:MQTTClientCore_mqtt311)
                  2000a33b    00000001     --HOLE--
                  2000a33c    00000004                    : mqttclient.oem4f (.data:MQTTClient_connectCfg)
                  2000a340    00000004     rtsv7M4_T_le_v4SPD16_eabi.lib : stkdepth_vars.c.obj (.data)
                  2000a344    00000004     slnetsock_release.a : slnetif.oem4f (.data)
                  2000a348    00000004     release_pem4f.oem4f (.data:ti_sysbios_family_arm_m3_Hwi_Module_State_0_excContext__A)
                  2000a34c    00000004     release_pem4f.oem4f (.data:ti_sysbios_family_arm_m3_Hwi_Module_State_0_excStack__A)
                  2000a350    00000004     release_pem4f.oem4f (.data:ti_sysbios_gates_GateHwi_Object__table__V)
                  2000a354    00000004     release_pem4f.oem4f (.data:ti_sysbios_knl_Task_Module_State_0_idleTask__A)
                  2000a358    00000004     release_pem4f.oem4f (.data:ti_sysbios_rts_ti_ReentSupport_Module__state__V)
                  2000a35c    00000004     release_pem4f.oem4f (.data:xdc_runtime_Memory_Module__state__V)

.priheap   0    20000140    00008000     UNINITIALIZED
                  20000140    00008000     --HOLE--

.stack     0    2003fc00    00000400     UNINITIALIZED
                  2003fc00    00000400     --HOLE--

.bootVecs 
*          0    00000000    00000008     DSECT
                  00000000    00000008     boot.aem4f : boot.oem4f (.bootVecs)

.resetVecs 
*          0    00000000    0000003c     
                  00000000    0000003c     release_pem4f.oem4f (.resetVecs)

.vecs      0    20000000    00000140     NOLOAD SECTION
                  20000000    00000140     release_pem4f.oem4f (.vecs)

xdc.meta   0    00000000    000000f7     COPY SECTION
                  00000000    000000f7     release_pem4f.oem4f (xdc.meta)

xdc.noload 
*          0    00000000    00000000     COPY SECTION

__llvm_prf_cnts 
*          0    20000000    00000000     UNINITIALIZED

.binit     0    00000000    00000000     

MODULE SUMMARY

       Module                       code    ro data   rw data
       ------                       ----    -------   -------
    ./
       mqtt_client_app.obj          4154    68        642    
       network_if.obj               3859    82        116    
       mqtt_if.obj                  3408    0         56     
       ti_drivers_config.obj        42      342       1330   
       dht11.obj                    652     0         416    
       uart_term.obj                654     0         8      
       main_tirtos.obj              104     0         0      
    +--+----------------------------+-------+---------+---------+
       Total:                       12873   492       2568   
                                                             
    /home/sam/workspace_0/tirtos_builds_MSP_EXP432P4111_release_ccs/Debug/configPkg/package/cfg/
       release_pem4f.oem4f          1790    1157      4380   
    +--+----------------------------+-------+---------+---------+
       Total:                       1790    1157      4380   
                                                             
    /home/sam/ti/ccs1040/ccs/tools/compiler/ti-cgt-arm_20.2.5.LTS/lib/rtsv7M4_T_le_v4SPD16_eabi.lib
       _printfi.c.obj               4851    0         0      
       mktime.c.obj                 672     96        0      
       fd_add_t2.asm.obj            438     0         0      
       fd_div_t2.asm.obj            310     0         0      
       s_scalbn.c.obj               272     0         0      
       strtoul.c.obj                272     0         0      
       fd_cmp_t2.asm.obj            268     0         0      
       ctype.c.obj                  0       257       0      
       fd_mul_t2.asm.obj            252     0         0      
       memcpy_t2.asm.obj            156     0         0      
       ull_div_t2.asm.obj           150     0         0      
       snprintf.c.obj               148     0         0      
       vsnprintf.c.obj              136     0         0      
       memset_t2.asm.obj            122     0         0      
       ll_div_t2.asm.obj            110     0         0      
       copy_decompress_lzss.c.obj   104     0         0      
       s_frexp.c.obj                100     0         0      
       _ltoa.c.obj                  84      0         0      
       atoi.c.obj                   76      0         0      
       cpy_tbl.c.obj                76      0         0      
       fd_toi_t2.asm.obj            72      0         0      
       strncpy.c.obj                54      0         0      
       i_tofd_t2.asm.obj            46      0         0      
       _lock.c.obj                  26      0         16     
       memmov.c.obj                 40      0         0      
       memcmp.c.obj                 36      0         0      
       tmzone.c.obj                 0       0         32     
       memccpy.c.obj                28      0         0      
       s_copysign.c.obj             26      0         0      
       args_main.c.obj              24      0         0      
       strcmp.c.obj                 24      0         0      
       strchr.c.obj                 22      0         0      
       strcpy.c.obj                 20      0         0      
       strlen.c.obj                 20      0         0      
       wcslen.c.obj                 18      0         0      
       copy_decompress_none.c.obj   14      0         0      
       copy_zero_init.c.obj         12      0         0      
       stkdepth_vars.c.obj          0       0         8      
       div0.asm.obj                 2       0         0      
    +--+----------------------------+-------+---------+---------+
       Total:                       9081    353       56     
                                                             
    /home/sam/ti/simplelink_msp432p4_sdk_3_40_01_02/kernel/tirtos/packages/ti/dpl/lib/dpl_msp432p4x1xi.aem4f
       ClockP_tirtos.oem4f          146     0         8      
       SemaphoreP_tirtos.oem4f      146     0         0      
       PowerMSP432_tirtos.oem4f     122     0         0      
       HwiP_tirtos.oem4f            108     0         0      
    +--+----------------------------+-------+---------+---------+
       Total:                       522     0         8      
                                                             
    /home/sam/ti/simplelink_msp432p4_sdk_3_40_01_02/kernel/tirtos/packages/ti/targets/arm/rtsarm/lib/auto_init.aem4f
       auto_init.oem4f              160     0         0      
    +--+----------------------------+-------+---------+---------+
       Total:                       160     0         0      
                                                             
    /home/sam/ti/simplelink_msp432p4_sdk_3_40_01_02/kernel/tirtos/packages/ti/targets/arm/rtsarm/lib/boot.aem4f
       boot.oem4f                   88      0         0      
    +--+----------------------------+-------+---------+---------+
       Total:                       88      0         0      
                                                             
    /home/sam/ti/simplelink_msp432p4_sdk_3_40_01_02/source/ti/devices/msp432p4xx/driverlib/ccs/msp432p4xx_driverlib.lib
       pcm.o                        1770    0         0      
       cs.o                         704     0         16     
       spi.o                        328     0         0      
       uart.o                       284     0         0      
       dma.o                        240     0         0      
       sysctl_a.o                   64      0         0      
       rtc_c.o                      44      0         0      
       wdt_a.o                      36      0         0      
       cpu.o                        28      0         0      
    +--+----------------------------+-------+---------+---------+
       Total:                       3498    0         16     
                                                             
    /home/sam/ti/simplelink_msp432p4_sdk_3_40_01_02/source/ti/drivers/lib/drivers_msp432p4x1xi.aem4f
       UARTMSP432.oem4f             3414    81        0      
       PowerMSP432.oem4f            2140    0         728    
       TimerMSP432.oem4f            1786    124       56     
       SPIMSP432DMA.oem4f           1870    32        0      
       GPIOMSP432.oem4f             1040    12        108    
       UDMAMSP432.oem4f             900     0         192    
       UART.oem4f                   186     36        2      
       SPI.oem4f                    172     32        2      
       Timer.oem4f                  188     12        2      
       RingBuf.oem4f                184     0         0      
       List.oem4f                   76      0         0      
    +--+----------------------------+-------+---------+---------+
       Total:                       11956   329       1090   
                                                             
    /home/sam/ti/simplelink_sdk_wifi_plugin_4_20_00_10/source/ti/drivers/net/wifi/ccs/rtos/simplelink.a
       driver.obj                   12416   280       2154   
       sl_socket.obj                7014    84        24     
       netapp.obj                   2086    12        0      
       device.obj                   1722    60        24     
       wlan.obj                     1620    16        0      
       eventreg.obj                 880     0         144    
       fs.obj                       924     32        0      
       cc_pal.obj                   916     0         24     
       spawn.obj                    264     0         80     
       netcfg.obj                   192     4         0      
       netutil.obj                  180     0         0      
       flowcont.obj                 40      0         0      
    +--+----------------------------+-------+---------+---------+
       Total:                       28254   488       2450   
                                                             
    /home/sam/ti/simplelink_sdk_wifi_plugin_4_20_00_10/source/ti/drivers/net/wifi/slnetif/ccs/Release/slnetifwifi.a
       slnetifwifi.obj              1458    36        176    
    +--+----------------------------+-------+---------+---------+
       Total:                       1458    36        176    
                                                             
    /home/sam/ti/simplelink_sdk_wifi_plugin_4_20_00_10/source/ti/net/lib/ccs/m4f/slnetsock_release.a
       slnetsock.oem4f              2140    0         314    
       slnetutils.oem4f             726     0         0      
       slnetif.oem4f                444     0         8      
    +--+----------------------------+-------+---------+---------+
       Total:                       3310    0         322    
                                                             
    /home/sam/ti/simplelink_sdk_wifi_plugin_4_20_00_10/source/ti/net/mqtt/lib/ccs/m4f/mqtt_release.a
       client_core.oem4f            5642    11        1562   
       mqttclient.oem4f             2376    6         4814   
       mqtt_common.oem4f            1458    0         0      
       mqtt_net_func.oem4f          1300    32        0      
    +--+----------------------------+-------+---------+---------+
       Total:                       10776   49        6376   
                                                             
    /home/sam/workspace_0/tirtos_builds_MSP_EXP432P4111_release_ccs/src/sysbios/sysbios.aem4f
       BIOS.obj                     11152   0         272    
       m3_Hwi_asm.obj               318     0         0      
       m3_TaskSupport_asm.obj       180     0         0      
       m3_Hwi_asm_switch.obj        118     0         0      
    +--+----------------------------+-------+---------+---------+
       Total:                       11768   0         272    
                                                             
       Stack:                       0       0         2048   
       Linker Generated:            0       853       0      
    +--+----------------------------+-------+---------+---------+
       Grand Total:                 95534   3757      19762  


LINKER GENERATED COPY TABLES

__TI_cinit_table @ 000184d8 records: 2, size/record: 8, table size: 16
	.data: load addr=00018190, load size=00000331 bytes, run addr=20009b0c, run size=00000854 bytes, compression=lzss
	.bss: load addr=000184d0, load size=00000008 bytes, run addr=20008200, run size=0000190a bytes, compression=zero_init


LINKER GENERATED HANDLER TABLE

__TI_handler_table @ 000184c4 records: 3, size/record: 4, table size: 12
	index: 0, handler: __TI_decompress_lzss
	index: 1, handler: __TI_decompress_none
	index: 2, handler: __TI_zero_init


GLOBAL SYMBOLS: SORTED ALPHABETICALLY BY Name 

address   name                                                            
-------   ----                                                            
00017307  Board_init                                                      
00000a8f  Board_initHook                                                  
000140b5  BrokerCB                                                        
00018034  Button_count                                                    
00017313  CPU_cpsid                                                       
0001731f  CPU_cpsie                                                       
0000bf25  CPU_wfi                                                         
000164b1  CS_setExternalClockSourceFrequency                              
0000b4c9  CS_startHFXTWithTimeout                                         
0000b691  CS_startLFXTWithTimeout                                         
2000a244  ClientId                                                        
000174bd  ClockP_Params_init                                              
00012ad5  ClockP_create                                                   
0001732b  ClockP_delete                                                   
00017339  ClockP_getSystemTickPeriod                                      
00016631  ClockP_getSystemTicks                                           
0000d1ed  ClockP_setTimeout                                               
0000e05d  ClockP_start                                                    
0000f2e5  ClockP_stop                                                     
20009ae4  ClockP_tickPeriod                                               
00016db9  ClockP_usleep                                                   
0000b1f5  DMA_setChannelTransfer                                          
20009aa4  DeviceCB                                                        
000055f1  DisplayAppBanner                                                
00018030  Display_count                                                   
00016a8d  EUSCI_A_SPI_getInterruptStatus                                  
00016aa5  EUSCI_B_SPI_getInterruptStatus                                  
00017ee4  GPIOMSP432_config                                               
00015335  GPIO_clearInt                                                   
00015369  GPIO_disableInt                                                 
0001539d  GPIO_enableInt                                                  
000115bd  GPIO_hwiIntFxn                                                  
0000db09  GPIO_init                                                       
00011b5d  GPIO_setCallback                                                
00007ccd  GPIO_setConfig                                                  
00014ea9  GPIO_toggle                                                     
00012269  GPIO_write                                                      
0000bbc5  GetCmd                                                          
20009974  GlobalLockObj                                                   
00008000  HEAPSIZE                                                        
0001556d  HostIrqGPIO_callback                                            
00017037  HwiP_Params_init                                                
0000f37d  HwiP_clearInterrupt                                             
000141c1  HwiP_create                                                     
00017345  HwiP_delete                                                     
0000f415  HwiP_disable                                                    
0000fe9d  HwiP_disableInterrupt                                           
00010675  HwiP_enableInterrupt                                            
000175e1  HwiP_restore                                                    
00011f1d  InitTerm                                                        
00014201  InitializeAppVariables                                          
00016119  List_put                                                        
0001613f  List_remove                                                     
00003289  MQTTAppThread                                                   
0000a635  MQTTClientCallback                                              
000166b1  MQTTClientCore_alloc                                            
0000f8a1  MQTTClientCore_createCtx                                        
000166cf  MQTTClientCore_ctxRun                                           
00012735  MQTTClientCore_deleteCtx                                        
00011f79  MQTTClientCore_exitLib                                          
0000e9f1  MQTTClientCore_initLib                                          
000149b1  MQTTClientCore_registerBuffers                                  
00014241  MQTTClientCore_registerCtxInfo                                  
00014ee1  MQTTClientCore_registerNetSvc                                   
00012f39  MQTTClientCore_registerWillInfo                                 
00013d81  MQTTClientCore_run                                              
00017351  MQTTClientCore_sendConnectMsg                                   
00012789  MQTTClientCore_sendDisconn                                      
0000ea8d  MQTTClientCore_sendPubMsg                                       
00017569  MQTTClientCore_sendSubMsg                                       
20009a94  MQTTClient_Lib_CB                                               
2000a2bc  MQTTClient_clientCfg                                            
2000a2ac  MQTTClient_clientContext                                        
2000a2a8  MQTTClient_closeContext                                         
000083d5  MQTTClient_connect                                              
2000a33c  MQTTClient_connectCfg                                           
0000e255  MQTTClient_create                                               
0000e2f9  MQTTClient_delete                                               
000149ed  MQTTClient_disconnect                                           
2000a2b0  MQTTClient_multiSrvConn                                         
2000a048  MQTTClient_net                                                  
00016dcd  MQTTClient_publish                                              
00011115  MQTTClient_run                                                  
000136bd  MQTTClient_set                                                  
00017259  MQTTClient_subscribe                                            
20009b04  MQTTClient_waitSecs                                             
0001077d  MQTTContextThread                                               
000101cf  MQTTHelperTopicMatching                                         
00016cb9  MQTTNet_commClose                                               
0000b009  MQTTNet_commOpen                                                
0001096d  MQTTNet_recvFrom                                                
00016de1  MQTTNet_rtcSecs                                                 
000114e9  MQTTNet_sendTo                                                  
00010b4d  MQTTNet_tcpAccept                                               
00011fd5  MQTTNet_tcpListen                                               
00013dc5  MQTTNet_tcpRecv                                                 
0000effd  MQTTNet_tcpSelect                                               
00017571  MQTTNet_tcpSend                                                 
00005829  MQTT_EventCallback                                              
000053a5  MQTT_IF_Connect                                                 
00007fad  MQTT_IF_Deinit                                                  
0000c4c5  MQTT_IF_Disconnect                                              
00007201  MQTT_IF_Init                                                    
0000ee35  MQTT_IF_Publish                                                 
00006055  MQTT_IF_Subscribe                                               
00009bd5  MQTT_PacketRecv                                                 
00016165  MQTT_clCtxRemove                                                
00016ccf  MQTT_clCtxReset                                                 
000154d5  MQTT_clCtxTimeoutInsert                                         
00016abd  MQTT_clCtxTimeoutUpdate                                         
00016df5  MQTT_packetAckWlistAppend                                       
00016a25  MQTT_packetAckWlistPurge                                        
00014781  MQTT_packetAckWlistRemove                                       
0001413d  MQTT_packetBufRdRemlen                                          
000147bf  MQTT_packetBufTailWrRemlen                                      
00015e45  MQTT_packetBufWrUtf8                                            
00016ce5  MQTT_packetFree                                                 
00016cfb  MQTT_packetInit                                                 
000151f1  MQTT_packetPrepFh                                               
0001648d  MQTT_packetProcMsgIdAckRx                                       
00010d95  MQTT_packetProcPubRx                                            
00012631  MQTT_packetPubAppendData                                        
000118ff  MQTT_packetPubAppendTopic                                       
00016e09  MQTT_packetReset                                                
00014a29  MQTT_qos2PubCqCheck                                             
00014f19  MQTT_qos2PubCqLogup                                             
000164d1  MQTT_qos2PubCqReset                                             
00011625  MQTT_qos2PubCqUnlog                                             
0001735d  MQTT_secureConnStructInit                                       
00016785  Message                                                         
0000e39d  MqttClientConfig                                                
0000ac29  MqttClientCtxCreate                                             
00013e09  MqttClientCtxDelete                                             
0000c585  MqttClientSub                                                   
0000d2a9  MqttClient_send                                                 
20009ab0  Msg                                                             
000159f1  Mutex_create_handle                                             
00002109  Network_IF_ConnectAP                                            
000151b9  Network_IF_DeInitDriver                                         
00014a65  Network_IF_DisconnectFromAP                                     
00004ee5  Network_IF_InitDriver                                           
0000de65  Network_IF_IpConfigGet                                          
00017369  Network_IF_ResetMCUStateMachine                                 
0000425b  NwpMaskInterrupt                                                
000167a1  NwpPowerOff                                                     
000167bd  NwpPowerOn                                                      
00011181  NwpRegisterInterruptHandler                                     
00004773  NwpUnMaskInterrupt                                              
00017776  OpcodeTranslateTable                                            
00011e61  PCM_getCoreVoltageLevel                                         
0001220d  PCM_getPowerMode                                                
00016e1d  PCM_getPowerState                                               
00015e6d  PCM_gotoLPM0                                                    
00010255  PCM_gotoLPM3                                                    
00017047  PCM_gotoLPM4                                                    
00017057  PCM_setPowerMode                                                
00017067  PCM_setPowerState                                               
000127dd  PCM_shutdownDevice                                              
00017964  PowerMSP432_config                                              
0001168d  PowerMSP432_getFreqs                                            
00017079  PowerMSP432_getNumPerfLevels                                    
00006053  PowerMSP432_initPolicy                                          
20009ff0  PowerMSP432_module                                              
20009b0c  PowerMSP432_perfLevels                                          
00012fd5  PowerMSP432_sleepPolicy                                         
00015a7b  PowerMSP432_updateFreqs                                         
00017375  Power_getConstraintMask                                         
00017381  Power_getPerformanceLevel                                       
00016e31  Power_idleFunc                                                  
0000f92d  Power_init                                                      
00015e95  Power_registerNotify                                            
00013705  Power_releaseConstraint                                         
00014f51  Power_setConstraint                                             
00002ce5  Power_sleep                                                     
000164f1  Power_unregisterNotify                                          
00015aa9  RTC_C_holdClock                                                 
0000e109  Report                                                          
00016f61  RingBuf_construct                                               
00014281  RingBuf_get                                                     
00016511  RingBuf_peek                                                    
00013d39  RingBuf_put                                                     
20009b08  RxIrqCnt                                                        
UNDEFED   SHT$$INIT_ARRAY$$Base                                           
UNDEFED   SHT$$INIT_ARRAY$$Limit                                          
00011963  SPIMSP432DMA_close                                              
00006b5b  SPIMSP432DMA_control                                            
00017dac  SPIMSP432DMA_fxnTable                                           
00010d1d  SPIMSP432DMA_init                                               
0000425d  SPIMSP432DMA_open                                               
00009645  SPIMSP432DMA_transfer                                           
0000a935  SPIMSP432DMA_transferCancel                                     
00016e45  SPI_Params_init                                                 
000174c7  SPI_close                                                       
00017f80  SPI_config                                                      
00018031  SPI_count                                                       
00017bec  SPI_defaultParams                                               
00015ebd  SPI_getInterruptStatus                                          
00013e4d  SPI_init                                                        
0000d847  SPI_initMaster                                                  
000142c1  SPI_open                                                        
000174d1  SPI_transfer                                                    
00017579  SemaphoreP_Params_init                                          
00014aa1  SemaphoreP_create                                               
00015ad5  SemaphoreP_createBinary                                         
0001738d  SemaphoreP_delete                                               
00016f73  SemaphoreP_pend                                                 
0001139d  SemaphoreP_post                                                 
0000f129  Semaphore_pend_handle                                           
0000623d  SimpleLinkFatalErrorEventHandler                                
00014301  SimpleLinkGeneralEventHandler                                   
00017399  SimpleLinkHttpServerEventHandler                                
000079d5  SimpleLinkNetAppEventHandler                                    
000173a5  SimpleLinkNetAppRequestEventHandler                             
000174db  SimpleLinkNetAppRequestMemFreeEventHandler                      
00003fcd  SimpleLinkSockEventHandler                                      
000065fd  SimpleLinkWlanEventHandler                                      
20009dd4  SlNetIfConfigWifi                                               
00016531  SlNetIfWifi_accept                                              
000166ed  SlNetIfWifi_bind                                                
00016f85  SlNetIfWifi_close                                               
0001670b  SlNetIfWifi_connect                                             
00013021  SlNetIfWifi_getConnectionStatus                                 
00015227  SlNetIfWifi_getHostByName                                       
00014e35  SlNetIfWifi_getIPAddr                                           
0000d8f9  SlNetIfWifi_getSockOpt                                          
00016a3f  SlNetIfWifi_listen                                              
0000ad21  SlNetIfWifi_loadSecObj                                          
00015b01  SlNetIfWifi_recv                                                
00014f89  SlNetIfWifi_recvFrom                                            
0001525d  SlNetIfWifi_select                                              
00015b2d  SlNetIfWifi_send                                                
00014fc1  SlNetIfWifi_sendTo                                              
00011ebf  SlNetIfWifi_setSockOpt                                          
00014ff9  SlNetIfWifi_socket                                              
000102d9  SlNetIfWifi_sockstartSec                                        
0000b5ad  SlNetIf_add                                                     
000161b1  SlNetIf_getConnectionStatus                                     
00015ee5  SlNetIf_getIfByID                                               
0001140d  SlNetIf_init                                                    
00012b25  SlNetIf_queryIf                                                 
0000f9b9  SlNetSock_accept                                                
00014341  SlNetSock_bind                                                  
000147fd  SlNetSock_close                                                 
0001374d  SlNetSock_connect                                               
0000f4ad  SlNetSock_create                                                
00013795  SlNetSock_init                                                  
00015069  SlNetSock_listen                                                
000122c1  SlNetSock_recv                                                  
00011bbd  SlNetSock_recvFrom                                              
00016e59  SlNetSock_sdsClrAll                                             
00015f0d  SlNetSock_sdsIsSet                                              
00015f35  SlNetSock_sdsSet                                                
00017089  SlNetSock_secAttribCreate                                       
00015f5d  SlNetSock_secAttribDelete                                       
00010e09  SlNetSock_secAttribSet                                          
000073a1  SlNetSock_select                                                
00012319  SlNetSock_send                                                  
00011c1d  SlNetSock_sendTo                                                
000137dd  SlNetSock_setOpt                                                
000130b9  SlNetSock_startSec                                              
0001035d  SlNetUtil_getHostByName                                         
000150a1  SlNetUtil_htonl                                                 
000153d1  SlNetUtil_htons                                                 
00015d19  SlNetUtil_inetPton                                              
0001182d  SlNetUtil_init                                                  
000150a1  SlNetUtil_ntohl                                                 
000153d1  SlNetUtil_ntohs                                                 
00016ad5  SysCtl_A_disableNMISource                                       
00016aed  SysCtl_A_enableNMISource                                        
00017099  SysCtl_A_getNMISourceStatus                                     
00017581  TimerGetCurrentTimestamp                                        
00017c2c  TimerMSP432HWAttrs                                              
00017c4c  TimerMSP432_Timer32_fxnTable                                    
000109e5  TimerMSP432_allocateTimerResource                               
00012f87  TimerMSP432_close                                               
00010143  TimerMSP432_control                                             
00012831  TimerMSP432_freeTimerResource                                   
000150d9  TimerMSP432_getCount                                            
0000641f  TimerMSP432_init                                                
0000867d  TimerMSP432_open                                                
0000c7c5  TimerMSP432_setPeriod                                           
0000c881  TimerMSP432_start                                               
000103e1  TimerMSP432_stop                                                
000170a9  Timer_Params_init                                               
000174e5  Timer_close                                                     
00017dc4  Timer_config                                                    
00018032  Timer_count                                                     
000174ef  Timer_getCount                                                  
00013ed5  Timer_init                                                      
00014381  Timer_open                                                      
000174f9  Timer_start                                                     
00017503  Timer_stop                                                      
0001358d  ToggleLED1CB                                                    
000135d9  ToggleLED2CB                                                    
00013625  ToggleLED3CB                                                    
0000eecd  TrimSpace                                                       
0000ef65  UARTMSP432_close                                                
0000c645  UARTMSP432_control                                              
00017a5c  UARTMSP432_fxnTable                                             
0000c33d  UARTMSP432_hwiIntFxn                                            
00008f43  UARTMSP432_init                                                 
00002735  UARTMSP432_open                                                 
000143c1  UARTMSP432_read                                                 
00015293  UARTMSP432_readCancel                                           
0000b931  UARTMSP432_readPolling                                          
0000e62d  UARTMSP432_write                                                
00011553  UARTMSP432_writeCancel                                          
0000d35d  UARTMSP432_writePolling                                         
00016b05  UART_Params_init                                                
00017f8c  UART_config                                                     
0001750d  UART_control                                                    
00018033  UART_count                                                      
00017aac  UART_defaultParams                                              
00013f19  UART_init                                                       
00009885  UART_initModule                                                 
00014401  UART_open                                                       
00017517  UART_readPolling                                                
00017521  UART_writePolling                                               
0000ba0d  UDMAMSP432_close                                                
00017fd4  UDMAMSP432_config                                               
0000f1bd  UDMAMSP432_init                                                 
0000f251  UDMAMSP432_open                                                 
4000480c  WDTCTL_SYM                                                      
000161d5  WDT_A_holdTimer                                                 
00018058  WiFi_config                                                     
00018035  WiFi_count                                                      
000167d9  WiFi_init                                                       
00003d3d  WifiInit                                                        
00017848  _SlActionLookupTable                                            
0000a329  _SlDeviceEventHandler                                           
00013825  _SlDeviceFatalErrorEvtHdlr                                      
0001386d  _SlDeviceGeneralEvtHdlr                                         
0000bc9d  _SlDeviceHandleAsync_InitComplete                               
0000f661  _SlDeviceHandleAsync_Stop                                       
00011259  _SlDeviceHandleResetRequestInternally                           
000173b1  _SlDeviceResetRequestInitCompletedCB                            
000138b5  _SlDrvBasicCmd                                                  
0000a42d  _SlDrvCmdOp                                                     
00010e79  _SlDrvCmdSend_noLock                                            
00012c65  _SlDrvCmdSend_noWait                                            
00005149  _SlDrvDataReadOp                                                
00005a55  _SlDrvDataWriteOp                                               
000170b9  _SlDrvDispatchHttpServerEvents                                  
000170c9  _SlDrvDispatchNetAppRequestEvents                               
0000c001  _SlDrvDriverCBDeinit                                            
00006eb9  _SlDrvDriverCBInit                                              
0000fa45  _SlDrvDriverIsApiAllowed                                        
0001559d  _SlDrvGlobalObjUnLock                                           
0000d411  _SlDrvHandleFatalError                                          
000161f9  _SlDrvIsApiInProgress                                           
000170d9  _SlDrvIsSpawnOwnGlobalLock                                      
0000e1af  _SlDrvIsTimeoutExpired                                          
00016d11  _SlDrvMemZero                                                   
00008a59  _SlDrvMsgReadSpawnCtx                                           
0000a735  _SlDrvObjGlobalLockWaitForever                                  
00017267  _SlDrvObjLockWaitForever                                        
00017275  _SlDrvObjUnLock                                                 
0000fad1  _SlDrvProtectAsyncRespSetting                                   
00016b1d  _SlDrvProtectionObjLockWaitForever                              
00016b35  _SlDrvProtectionObjUnLock                                       
0000705d  _SlDrvReleaseAllActivePendingPoolObj                            
00002429  _SlDrvReleasePoolObj                                            
00017283  _SlDrvResetCmdExt                                               
00013f5d  _SlDrvRxIrqHandler                                              
0001621d  _SlDrvStartMeasureTimeout                                       
00017291  _SlDrvSyncObjSignal                                             
00015b59  _SlDrvSyncObjWaitForever                                        
000138fd  _SlDrvSyncObjWaitTimeout                                        
0000bd75  _SlDrvWaitForInternalAsyncEvent                                 
00002fb9  _SlDrvWaitForPoolObj                                            
00014441  _SlFindAndReleasePendingCmd                                     
00015f85  _SlFlowContSet                                                  
00016811  _SlInternalIsItSpawnThread                                      
00012031  _SlInternalSpawn                                                
00012d05  _SlInternalSpawnTaskEntry                                       
00014481  _SlInternalSpawnWaitForEvent                                    
000144c1  _SlIsEventRegistered                                            
00005e61  _SlNetAppEventHandler                                           
00013945  _SlNetAppEvtHdlr                                                
0000cc2d  _SlNetAppHandleAsync_DnsGetHostByName                           
00009abd  _SlNetAppHandleAsync_DnsGetHostByService                        
0000be4d  _SlNetAppHandleAsync_NetAppReceive                              
0000cce5  _SlNetAppHandleAsync_PingResponse                               
00012d55  _SlNetAppHttpServerHdlr                                         
00012da5  _SlNetAppRequestHdlr                                            
0001398d  _SlNetAppRequestMemFree                                         
0000c93d  _SlNetAppSendResponse                                           
0001807c  _SlNetAppSendResponseCmdCtrl                                    
00011331  _SlNetAppSendTokenValue                                         
00018080  _SlNetAppSendTokenValueCmdCtrl                                  
0000d4c5  _SlNetUtilHandleAsync_Cmd                                       
000139d5  _SlSockEvtHdlr                                                  
0000f6f1  _SlSocketHandleAsync_Accept                                     
0000dbb5  _SlSocketHandleAsync_Close                                      
0000dc61  _SlSocketHandleAsync_Connect                                    
000018c9  _SlSocketHandleAsync_Select                                     
00008f45  _SlSocketHandleAsync_StartTLS                                   
000116f5  _SlSpawnMsgListGetCount                                         
00008cd5  _SlSpawnMsgListInsert                                           
0000e811  _SlSpawnMsgListProcess                                          
00013a1d  _SlWlanEvtHdlr                                                  
00000000  __ASM__                                                         
00000078  __ISA__                                                         
0000008b  __PLAT__                                                        
20040000  __STACK_END                                                     
00000400  __STACK_SIZE                                                    
000000ae  __TARG__                                                        
000184d8  __TI_CINIT_Base                                                 
000184e8  __TI_CINIT_Limit                                                
000184c4  __TI_Handler_Table_Base                                         
000184d0  __TI_Handler_Table_Limit                                        
0000e8b1  __TI_auto_init                                                  
0001175d  __TI_decompress_lzss                                            
000172bb  __TI_decompress_none                                            
00012885  __TI_ltoa                                                       
ffffffff  __TI_pprof_out_hndl                                             
00000041  __TI_printfi                                                    
ffffffff  __TI_prof_data_size                                             
ffffffff  __TI_prof_data_start                                            
00018190  __TI_static_base__                                              
000173e1  __TI_zero_init                                                  
000000d4  __TRDR__                                                        
0000ffb1  __aeabi_cdcmpeq                                                 
0000ffb1  __aeabi_cdcmple                                                 
00010037  __aeabi_cdrcmple                                                
00013b89  __aeabi_d2iz                                                    
000069af  __aeabi_dadd                                                    
00008e0d  __aeabi_ddiv                                                    
0000ab2d  __aeabi_dmul                                                    
000069a5  __aeabi_dsub                                                    
00017619  __aeabi_errno_addr                                              
00015a1f  __aeabi_i2d                                                     
0000b0ff  __aeabi_idiv0                                                   
0000b0ff  __aeabi_ldiv0                                                   
000110a7  __aeabi_ldivmod                                                 
000108f1  __aeabi_memclr                                                  
000108f1  __aeabi_memclr4                                                 
000108f1  __aeabi_memclr8                                                 
0000ebc5  __aeabi_memcpy                                                  
0000ebc5  __aeabi_memcpy4                                                 
0000ebc5  __aeabi_memcpy8                                                 
000108f3  __aeabi_memset                                                  
000108f3  __aeabi_memset4                                                 
000108f3  __aeabi_memset8                                                 
0000f093  __aeabi_uldivmod                                                
ffffffff  __binit__                                                       
ffffffff  __c_args__                                                      
00003a9d  __mktime32                                                      
20008140  __primary_heap_end__                                            
20000140  __primary_heap_start__                                          
2003fc00  __stack                                                         
20000000  __start___llvm_prf_cnts                                         
20000000  __stop___llvm_prf_cnts                                          
00016b4d  _args_main                                                      
000123c9  _c_int00                                                        
00017674  _ctypes_                                                        
2000a2b4  _lock                                                           
00009ce7  _nop                                                            
000107f9  _pthread_abstime2ticks                                          
00015b89  _pthread_cleanupFxn                                             
00016f99  _pthread_cleanup_pop                                            
0000f2e9  _pthread_removeThreadKeys                                       
000173bd  _register_lock                                                  
000173c9  _register_unlock                                                
00015fd5  _sl_ExtLib_AwaitedAckLockedSet                                  
0001729f  _sl_ExtLib_AwaitedAckSet                                        
00014501  _sl_ExtLib_ServerAckLockedWait                                  
2000a214  _tz                                                             
2000a2b8  _unlock                                                         
20009ae8  appQueue                                                        
00013151  atoi                                                            
ffffffff  binit                                                           
00015d6d  calloc                                                          
20008dfc  clients                                                         
0000c401  clock_gettime                                                   
20009aec  connected                                                       
0000dd0d  controlTopicCB                                                  
0001319d  copy_in                                                         
00016a59  copysign                                                        
00016a59  copysignl                                                       
000131e9  countHandler                                                    
2000a25c  counter                                                         
20009a80  data_info                                                       
20009af0  deinit                                                          
0000cd9d  dht11_init                                                      
00010ad5  formatdata                                                      
00016a73  free                                                            
00011a91  frexp                                                           
00011a91  frexpl                                                          
2000a279  gGlobalLockCntReleased                                          
2000a278  gGlobalLockCntRequested                                         
20008a00  g_CB                                                            
2000a2d0  g_Host_irq_Hndlr                                                
2000a070  g_LibsEvents                                                    
2000a27a  g_SlDeviceStatus                                                
200099a0  g_SlInternalSpawnCB                                             
2000a2cc  g_SpiFd                                                         
2000a094  g_UserEvents                                                    
2000a27c  g_pCB                                                           
20009ad0  g_ucConnectionBSSID                                             
200099c8  g_ucConnectionSSID                                              
2000a270  g_ulGatewayIP                                                   
2000a26c  g_ulStaIp                                                       
2000a274  g_ulStatus                                                      
20009b06  g_usConnectIndex                                                
2000a0b8  gpioCallbackFunctions                                           
2000a0dc  gpioPinConfigs                                                  
00017ff4  heap0                                                           
000140f9  infoTopicCB                                                     
2000a254  last                                                            
00009ce9  ldexp                                                           
00009ce9  ldexpl                                                          
000117c5  main                                                            
00001379  mainThread                                                      
2000a340  main_func_sp                                                    
00015a4d  malloc                                                          
0000da59  matchModeByRole                                                 
0001689d  memccpy                                                         
00016265  memcmp                                                          
0000ebc5  memcpy                                                          
00016075  memmove                                                         
000108f9  memset                                                          
00003a9d  mktime                                                          
00013af9  mq_close                                                        
00006b61  mq_open                                                         
00014581  mq_receive                                                      
00012e49  mq_send                                                         
20009af4  mqttClientHandle                                                
2000a19c  mqttClientParams                                                
2000a1b4  mqttConnParams                                                  
2000a2c4  mqttInitParams                                                  
2000a260  mqttWillParams                                                  
200097ec  msg_control                                                     
20009850  msg_info_data                                                   
2000a258  now                                                             
2000a280  pPingCallBackFunc                                               
20009abc  params1                                                         
00016289  pthread_attr_init                                               
000172c9  pthread_attr_setdetachstate                                     
00016e99  pthread_attr_setschedparam                                      
00017591  pthread_attr_setstacksize                                       
0000b2e9  pthread_create                                                  
00011c81  pthread_exit                                                    
00016d41  pthread_mutex_destroy                                           
00013b41  pthread_mutex_init                                              
00017599  pthread_mutex_lock                                              
00014b59  pthread_mutex_unlock                                            
00017129  pthread_mutexattr_init                                          
00017139  pthread_mutexattr_settype                                       
000173f1  pthread_self                                                    
0000cf0d  pushButtonConnectionHandler                                     
000076c9  read_dht11                                                      
00014933  realloc                                                         
200095d0  savedate                                                        
00009ce9  scalbn                                                          
00009ce9  scalbnl                                                         
00017531  sem_destroy                                                     
000175a9  sem_getvalue                                                    
00015df1  sem_init                                                        
00017541  sem_post                                                        
00014971  sem_timedwait                                                   
00016551  sem_trywait                                                     
000172d9  sem_wait                                                        
00014b95  sendinfo                                                        
00006d11  sl_Accept                                                       
0000e4e5  sl_Bind                                                         
0000ae19  sl_Close                                                        
00007b55  sl_Connect                                                      
0000d07d  sl_DeviceGet                                                    
0000dfb5  sl_FsClose                                                      
00009521  sl_FsOpen                                                       
0000a835  sl_FsWrite                                                      
0000d579  sl_GetSockOpt                                                   
00012529  sl_Listen                                                       
00007e3d  sl_NetAppDnsGetHostByName                                       
0000c705  sl_NetCfgGet                                                    
0000fbe9  sl_Recv                                                         
00008529  sl_RecvFrom                                                     
00012581  sl_RegisterLibsEventHandler                                     
000037f1  sl_Select                                                       
0000cab5  sl_Send                                                         
0000b101  sl_SendTo                                                       
0001056d  sl_SetSockOpt                                                   
00010a5d  sl_Socket                                                       
000099a1  sl_Start                                                        
00008911  sl_StartTLS                                                     
00006421  sl_Stop                                                         
0001754b  sl_Task                                                         
0000fe15  sl_UnregisterLibsEventHandler                                   
000049f9  sl_WlanConnect                                                  
000162d1  sl_WlanDisconnect                                               
0000d135  sl_WlanGet                                                      
00003541  sl_WlanProfileAdd                                               
00013319  sl_WlanSetMode                                                  
00014c11  sleep                                                           
00013365  snprintf                                                        
00017ad0  spiMSP432DMAHWAttrs                                             
200098fc  spiMSP432DMAObjects                                             
000172e7  spi_Close                                                       
00011ce1  spi_Open                                                        
0000d62d  spi_Read                                                        
0000d6e1  spi_Write                                                       
00016d57  strchr                                                          
00016bc5  strcmp                                                          
00016ead  strcpy                                                          
00016ec1  strlen                                                          
000152ff  strncpy                                                         
00009df9  strtoul                                                         
2000a100  ti_sysbios_BIOS_Module__state__V                                
00015c95  ti_sysbios_BIOS_RtsGateProxy_Handle__label__S                   
0001208d  ti_sysbios_BIOS_RtsGateProxy_enter__E                           
000120ed  ti_sysbios_BIOS_RtsGateProxy_leave__E                           
00017629  ti_sysbios_BIOS_RtsGateProxy_query__E                           
00015781  ti_sysbios_BIOS_atExitFunc__I                                   
00016d6d  ti_sysbios_BIOS_exitFunc__I                                     
00017159  ti_sysbios_BIOS_exit__E                                         
00017641  ti_sysbios_BIOS_linkedWithIncorrectBootLibrary__E               
0000b92f  ti_sysbios_BIOS_nullFunc__I                                     
000162f5  ti_sysbios_BIOS_registerRTSLock__I                              
00016319  ti_sysbios_BIOS_removeRTSLock__I                                
00016591  ti_sysbios_BIOS_rtsLock__I                                      
00016bdd  ti_sysbios_BIOS_rtsUnlock__I                                    
00017169  ti_sysbios_BIOS_setCpuFreq__E                                   
00017179  ti_sysbios_BIOS_setThreadType__E                                
000157b1  ti_sysbios_BIOS_startFunc__I                                    
00017189  ti_sysbios_BIOS_start__E                                        
000180b4  ti_sysbios_family_arm_m3_Hwi_E_alreadyDefined__C                
000180b8  ti_sysbios_family_arm_m3_Hwi_E_badIntNum__C                     
00014c89  ti_sysbios_family_arm_m3_Hwi_Instance_finalize__E               
0000d1f1  ti_sysbios_family_arm_m3_Hwi_Instance_init__E                   
2000a252  ti_sysbios_family_arm_m3_Hwi_Module_State_0_excActive__A        
2000a348  ti_sysbios_family_arm_m3_Hwi_Module_State_0_excContext__A       
2000a34c  ti_sysbios_family_arm_m3_Hwi_Module_State_0_excStack__A         
00017e7e  ti_sysbios_family_arm_m3_Hwi_Module__id__C                      
2000a2d4  ti_sysbios_family_arm_m3_Hwi_Module__root__V                    
00016bf5  ti_sysbios_family_arm_m3_Hwi_Module__startupDone__F             
00016bf5  ti_sysbios_family_arm_m3_Hwi_Module__startupDone__S             
20009f8c  ti_sysbios_family_arm_m3_Hwi_Module__state__V                   
00012e99  ti_sysbios_family_arm_m3_Hwi_Module_startup__E                  
000180bc  ti_sysbios_family_arm_m3_Hwi_NUM_INTERRUPTS__C                  
00017c8c  ti_sysbios_family_arm_m3_Hwi_Object__DESC__C                    
00017a00  ti_sysbios_family_arm_m3_Hwi_Object__PARAMS__C                  
000180c0  ti_sysbios_family_arm_m3_Hwi_Object__count__C                   
000165b1  ti_sysbios_family_arm_m3_Hwi_Object__delete__S                  
00016ed5  ti_sysbios_family_arm_m3_Hwi_Object__get__S                     
2000a1cc  ti_sysbios_family_arm_m3_Hwi_Object__table__V                   
000173fd  ti_sysbios_family_arm_m3_Hwi_Params__init__S                    
000180c4  ti_sysbios_family_arm_m3_Hwi_ccr__C                             
000165d1  ti_sysbios_family_arm_m3_Hwi_clearInterrupt__E                  
00012981  ti_sysbios_family_arm_m3_Hwi_create                             
0001214d  ti_sysbios_family_arm_m3_Hwi_delete                             
00017409  ti_sysbios_family_arm_m3_Hwi_disableFxn__E                      
00013bd1  ti_sysbios_family_arm_m3_Hwi_disableInterrupt__E                
00011af9  ti_sysbios_family_arm_m3_Hwi_dispatchC__I                       
200092b0  ti_sysbios_family_arm_m3_Hwi_dispatchTable                      
0000b3d9  ti_sysbios_family_arm_m3_Hwi_dispatch__I                        
000175b1  ti_sysbios_family_arm_m3_Hwi_doSwiRestore__I                    
000175d9  ti_sysbios_family_arm_m3_Hwi_doTaskRestore__I                   
00013c19  ti_sysbios_family_arm_m3_Hwi_enableInterrupt__E                 
0001609d  ti_sysbios_family_arm_m3_Hwi_excHandlerAsm__I                   
000180c8  ti_sysbios_family_arm_m3_Hwi_excHandlerFunc__C                  
000168d9  ti_sysbios_family_arm_m3_Hwi_excHandler__I                      
00013fa1  ti_sysbios_family_arm_m3_Hwi_getStackInfo__E                    
0000f381  ti_sysbios_family_arm_m3_Hwi_initNVIC__E                        
000125d9  ti_sysbios_family_arm_m3_Hwi_initStacks__E                      
0000b4ad  ti_sysbios_family_arm_m3_Hwi_interruptsAreDisabledButShouldNotBe
000180cc  ti_sysbios_family_arm_m3_Hwi_nullIsrFunc__C                     
e000e000  ti_sysbios_family_arm_m3_Hwi_nvic                               
0001618b  ti_sysbios_family_arm_m3_Hwi_pendSV__I                          
000105f1  ti_sysbios_family_arm_m3_Hwi_postInit__I                        
000180d0  ti_sysbios_family_arm_m3_Hwi_priGroup__C                        
20000000  ti_sysbios_family_arm_m3_Hwi_ramVectors                         
00000000  ti_sysbios_family_arm_m3_Hwi_resetVectors                       
000175e1  ti_sysbios_family_arm_m3_Hwi_restoreFxn__E                      
000161af  ti_sysbios_family_arm_m3_Hwi_return                             
000175b9  ti_sysbios_family_arm_m3_Hwi_startup__E                         
000180d4  ti_sysbios_family_arm_m3_Hwi_swiDisable__C                      
000180d8  ti_sysbios_family_arm_m3_Hwi_swiRestore__C                      
00016ee9  ti_sysbios_family_arm_m3_Hwi_switchFromBootStack__E             
000121ad  ti_sysbios_family_arm_m3_TaskSupport_Module__startupDone__S     
0000fc75  ti_sysbios_family_arm_m3_TaskSupport_buildTaskStack             
00017419  ti_sysbios_family_arm_m3_TaskSupport_getStackAlignment__E       
00017199  ti_sysbios_family_arm_m3_TaskSupport_glue                       
000180dc  ti_sysbios_family_arm_m3_TaskSupport_stackAlignment__C          
000157e1  ti_sysbios_family_arm_m3_TaskSupport_start__E                   
00016c0d  ti_sysbios_family_arm_m3_TaskSupport_swap__E                    
2000a284  ti_sysbios_family_arm_msp432_ClockFreqs_Module__state__V        
00016341  ti_sysbios_family_arm_msp432_ClockFreqs_setFrequency__E         
00014cc9  ti_sysbios_family_arm_msp432_Seconds_Module_startup__E          
00016fe9  ti_sysbios_family_arm_msp432_Seconds_getTime__E                 
000113a1  ti_sysbios_family_arm_msp432_Seconds_get__E                     
2000a124  ti_sysbios_family_arm_msp432_Timer_Module_State_0_device__A     
2000a234  ti_sysbios_family_arm_msp432_Timer_Module_State_0_handles__A    
00016c25  ti_sysbios_family_arm_msp432_Timer_Module__startupDone__F       
00016c25  ti_sysbios_family_arm_msp432_Timer_Module__startupDone__S       
2000a290  ti_sysbios_family_arm_msp432_Timer_Module__state__V             
00014641  ti_sysbios_family_arm_msp432_Timer_Module_startup__E            
20009ecc  ti_sysbios_family_arm_msp432_Timer_Object__table__V             
00012091  ti_sysbios_family_arm_msp432_Timer_getCurrentTick__E            
00017429  ti_sysbios_family_arm_msp432_Timer_getMaxTicks__E               
000129d9  ti_sysbios_family_arm_msp432_Timer_initDevice__I                
000180e0  ti_sysbios_family_arm_msp432_Timer_numTimerDevices__C           
0000e061  ti_sysbios_family_arm_msp432_Timer_periodicStub__E              
000133b1  ti_sysbios_family_arm_msp432_Timer_postInit__I                  
00011d41  ti_sysbios_family_arm_msp432_Timer_setNextTick__E               
00013401  ti_sysbios_family_arm_msp432_Timer_start__E                     
000180e4  ti_sysbios_family_arm_msp432_Timer_startupNeeded__C             
00014681  ti_sysbios_family_arm_msp432_Timer_startup__E                   
000171a9  ti_sysbios_family_arm_msp432_init_Boot_disableWatchdog          
0000b2e5  ti_sysbios_family_arm_msp432_init_Boot_init__I                  
00016765  ti_sysbios_family_xxx_Hwi_switchAndRunFunc                      
00015c69  ti_sysbios_gates_GateHwi_Handle__label__S                       
00017649  ti_sysbios_gates_GateHwi_Instance_init__E                       
00017af4  ti_sysbios_gates_GateHwi_Module__FXNS__C                        
2000a2dc  ti_sysbios_gates_GateHwi_Module__root__V                        
00017cac  ti_sysbios_gates_GateHwi_Object__DESC__C                        
00017ddc  ti_sysbios_gates_GateHwi_Object__PARAMS__C                      
00015811  ti_sysbios_gates_GateHwi_Object__create__S                      
000165f1  ti_sysbios_gates_GateHwi_Object__delete__S                      
2000a350  ti_sysbios_gates_GateHwi_Object__table__V                       
00017439  ti_sysbios_gates_GateHwi_enter__E                               
000175e9  ti_sysbios_gates_GateHwi_leave__E                               
00017621  ti_sysbios_gates_GateHwi_query__E                               
00015c95  ti_sysbios_gates_GateMutex_Handle__label__S                     
000180e8  ti_sysbios_gates_GateMutex_Instance_State_sem__O                
000171b9  ti_sysbios_gates_GateMutex_Instance_finalize__E                 
000168f9  ti_sysbios_gates_GateMutex_Instance_init__E                     
00017b18  ti_sysbios_gates_GateMutex_Module__FXNS__C                      
2000a2e4  ti_sysbios_gates_GateMutex_Module__root__V                      
00017ccc  ti_sysbios_gates_GateMutex_Object__DESC__C                      
00017df4  ti_sysbios_gates_GateMutex_Object__PARAMS__C                    
00015841  ti_sysbios_gates_GateMutex_Object__create__S                    
00016365  ti_sysbios_gates_GateMutex_Object__delete__S                    
20009e2c  ti_sysbios_gates_GateMutex_Object__table__V                     
00015871  ti_sysbios_gates_GateMutex_enter__E                             
00016c41  ti_sysbios_gates_GateMutex_leave__E                             
00017629  ti_sysbios_gates_GateMutex_query__E                             
00016bf5  ti_sysbios_hal_Hwi_HwiProxy_Module__startupDone__S              
000173fd  ti_sysbios_hal_Hwi_HwiProxy_Params__init__S                     
000165d1  ti_sysbios_hal_Hwi_HwiProxy_clearInterrupt__E                   
00013bd1  ti_sysbios_hal_Hwi_HwiProxy_disableInterrupt__E                 
00017409  ti_sysbios_hal_Hwi_HwiProxy_disable__E                          
00013c19  ti_sysbios_hal_Hwi_HwiProxy_enableInterrupt__E                  
00013fa1  ti_sysbios_hal_Hwi_HwiProxy_getStackInfo__E                     
000175e1  ti_sysbios_hal_Hwi_HwiProxy_restore__E                          
000175b9  ti_sysbios_hal_Hwi_HwiProxy_startup__E                          
00016ee9  ti_sysbios_hal_Hwi_HwiProxy_switchFromBootStack__E              
00017001  ti_sysbios_hal_Hwi_Module_startup__E                            
000165d1  ti_sysbios_hal_Hwi_clearInterrupt__E                            
00013bd1  ti_sysbios_hal_Hwi_disableInterrupt__E                          
00013c19  ti_sysbios_hal_Hwi_enableInterrupt__E                           
00013fa1  ti_sysbios_hal_Hwi_getStackInfo__E                              
00015539  ti_sysbios_hal_Hwi_initStack                                    
000175b9  ti_sysbios_hal_Hwi_startup__E                                   
00016ee9  ti_sysbios_hal_Hwi_switchFromBootStack__E                       
00016fe9  ti_sysbios_hal_Seconds_SecondsProxy_getTime__E                  
000113a1  ti_sysbios_hal_Seconds_SecondsProxy_get__E                      
00016fe9  ti_sysbios_hal_Seconds_getTime__E                               
000113a1  ti_sysbios_hal_Seconds_get__E                                   
000180ec  ti_sysbios_heaps_HeapMem_E_memory__C                            
00015cc1  ti_sysbios_heaps_HeapMem_Handle__label__S                       
000146c1  ti_sysbios_heaps_HeapMem_Instance_init__E                       
00015c95  ti_sysbios_heaps_HeapMem_Module_GateProxy_Handle__label__S      
000129d5  ti_sysbios_heaps_HeapMem_Module_GateProxy_enter__E              
00012e45  ti_sysbios_heaps_HeapMem_Module_GateProxy_leave__E              
00017629  ti_sysbios_heaps_HeapMem_Module_GateProxy_query__E              
00017a84  ti_sysbios_heaps_HeapMem_Module__FXNS__C                        
000180f0  ti_sysbios_heaps_HeapMem_Module__gateObj__C                     
00017f1e  ti_sysbios_heaps_HeapMem_Module__id__C                          
2000a2ec  ti_sysbios_heaps_HeapMem_Module__root__V                        
00017cec  ti_sysbios_heaps_HeapMem_Object__DESC__C                        
00017b3c  ti_sysbios_heaps_HeapMem_Object__PARAMS__C                      
000180f4  ti_sysbios_heaps_HeapMem_Object__count__C                       
000158a1  ti_sysbios_heaps_HeapMem_Object__create__S                      
00016611  ti_sysbios_heaps_HeapMem_Object__delete__S                      
00016efd  ti_sysbios_heaps_HeapMem_Object__get__S                         
2000a1e4  ti_sysbios_heaps_HeapMem_Object__table__V                       
0000c1a1  ti_sysbios_heaps_HeapMem_alloc__E                               
00010679  ti_sysbios_heaps_HeapMem_free__E                                
00013451  ti_sysbios_heaps_HeapMem_getStats__E                            
00010f59  ti_sysbios_heaps_HeapMem_initPrimary__I                         
000175f1  ti_sysbios_heaps_HeapMem_isBlocking__E                          
000180f8  ti_sysbios_heaps_HeapMem_primaryHeapBaseAddr__C                 
000180fc  ti_sysbios_heaps_HeapMem_primaryHeapEndAddr__C                  
00018100  ti_sysbios_heaps_HeapMem_reqAlign__C                            
00016919  ti_sysbios_knl_Clock_Instance_finalize__E                       
00014701  ti_sysbios_knl_Clock_Instance_init__E                           
00018104  ti_sysbios_knl_Clock_Module_State_clockQ__O                     
2000a2f4  ti_sysbios_knl_Clock_Module__root__V                            
2000a01c  ti_sysbios_knl_Clock_Module__state__V                           
00016389  ti_sysbios_knl_Clock_Module_startup__E                          
00017d0c  ti_sysbios_knl_Clock_Object__DESC__C                            
00017b60  ti_sysbios_knl_Clock_Object__PARAMS__C                          
000163ad  ti_sysbios_knl_Clock_Object__delete__S                          
00017445  ti_sysbios_knl_Clock_Params__init__S                            
00016c25  ti_sysbios_knl_Clock_TimerProxy_Module__startupDone__S          
000133fd  ti_sysbios_knl_Clock_TimerProxy_getCurrentTick__E               
0001344d  ti_sysbios_knl_Clock_TimerProxy_getMaxTicks__E                  
0001349d  ti_sysbios_knl_Clock_TimerProxy_setNextTick__E                  
00014681  ti_sysbios_knl_Clock_TimerProxy_startup__E                      
000160c9  ti_sysbios_knl_Clock_addI__E                                    
00014d05  ti_sysbios_knl_Clock_create                                     
000134ed  ti_sysbios_knl_Clock_delete                                     
00016f11  ti_sysbios_knl_Clock_doTick__I                                  
00016631  ti_sysbios_knl_Clock_getTicks__E                                
00017651  ti_sysbios_knl_Clock_logTick__E                                 
00016939  ti_sysbios_knl_Clock_scheduleNextTick__E                        
00017631  ti_sysbios_knl_Clock_setTimeout__E                              
00011831  ti_sysbios_knl_Clock_startI__E                                  
00016d89  ti_sysbios_knl_Clock_start__E                                   
000175f9  ti_sysbios_knl_Clock_stop__E                                    
00018108  ti_sysbios_knl_Clock_tickPeriod__C                              
00010ca9  ti_sysbios_knl_Clock_walkQueueDynamic__E                        
0000d9a9  ti_sysbios_knl_Clock_workFuncDynamic__E                         
00017ffc  ti_sysbios_knl_Idle_funcList__A                                 
00018004  ti_sysbios_knl_Idle_funcList__C                                 
000172f9  ti_sysbios_knl_Idle_loop__E                                     
00016651  ti_sysbios_knl_Idle_run__E                                      
0001810c  ti_sysbios_knl_Mailbox_Instance_State_dataQue__O                
00018110  ti_sysbios_knl_Mailbox_Instance_State_dataSem__O                
00018114  ti_sysbios_knl_Mailbox_Instance_State_freeQue__O                
00018118  ti_sysbios_knl_Mailbox_Instance_State_freeSem__O                
00010fc9  ti_sysbios_knl_Mailbox_Instance_finalize__E                     
0000bf29  ti_sysbios_knl_Mailbox_Instance_init__E                         
2000a2fc  ti_sysbios_knl_Mailbox_Module__root__V                          
00013c61  ti_sysbios_knl_Mailbox_Module_startup__E                        
00017d2c  ti_sysbios_knl_Mailbox_Object__DESC__C                          
0001799c  ti_sysbios_knl_Mailbox_Object__PARAMS__C                        
0001811c  ti_sysbios_knl_Mailbox_Object__count__C                         
000171c9  ti_sysbios_knl_Mailbox_Object__get__S                           
00012a2d  ti_sysbios_knl_Mailbox_create                                   
00018120  ti_sysbios_knl_Mailbox_maxTypeAlign__C                          
00010d21  ti_sysbios_knl_Mailbox_pend__E                                  
000158d1  ti_sysbios_knl_Mailbox_postInit__I                              
0000fea1  ti_sysbios_knl_Mailbox_post__E                                  
00017601  ti_sysbios_knl_Queue_Instance_init__E                           
2000a304  ti_sysbios_knl_Queue_Module__root__V                            
00017d4c  ti_sysbios_knl_Queue_Object__DESC__C                            
00017e0c  ti_sysbios_knl_Queue_Object__PARAMS__C                          
00017451  ti_sysbios_knl_Queue_Object__get__S                             
00015ced  ti_sysbios_knl_Queue_construct                                  
00016955  ti_sysbios_knl_Queue_destruct                                   
00016971  ti_sysbios_knl_Queue_get__E                                     
00016991  ti_sysbios_knl_Queue_put__E                                     
00018124  ti_sysbios_knl_Semaphore_Instance_State_pendQ__O                
000171d9  ti_sysbios_knl_Semaphore_Instance_finalize__E                   
000163d1  ti_sysbios_knl_Semaphore_Instance_init__E                       
2000a30c  ti_sysbios_knl_Semaphore_Module__root__V                        
00017d6c  ti_sysbios_knl_Semaphore_Object__DESC__C                        
00017b84  ti_sysbios_knl_Semaphore_Object__PARAMS__C                      
000163f5  ti_sysbios_knl_Semaphore_Object__delete__S                      
0001745d  ti_sysbios_knl_Semaphore_Params__init__S                        
00015901  ti_sysbios_knl_Semaphore_construct                              
000154a1  ti_sysbios_knl_Semaphore_create                                 
0001353d  ti_sysbios_knl_Semaphore_delete                                 
00016671  ti_sysbios_knl_Semaphore_destruct                               
00015931  ti_sysbios_knl_Semaphore_pendTimeout__I                         
000091a9  ti_sysbios_knl_Semaphore_pend__E                                
00011da1  ti_sysbios_knl_Semaphore_post__E                                
20009cd4  ti_sysbios_knl_Swi_Module_State_0_readyQ__A                     
2000a180  ti_sysbios_knl_Swi_Module__state__V                             
000160f1  ti_sysbios_knl_Swi_Module_startup__E                            
00018128  ti_sysbios_knl_Swi_Object__count__C                             
00016f25  ti_sysbios_knl_Swi_Object__get__S                               
20009fc0  ti_sysbios_knl_Swi_Object__table__V                             
000171e9  ti_sysbios_knl_Swi_disable__E                                   
00013fe9  ti_sysbios_knl_Swi_post__E                                      
00011411  ti_sysbios_knl_Swi_restoreHwi__E                                
00014d41  ti_sysbios_knl_Swi_restore__E                                   
000134a1  ti_sysbios_knl_Swi_runLoop__I                                   
00011e01  ti_sysbios_knl_Swi_run__I                                       
000120f1  ti_sysbios_knl_Swi_schedule__I                                  
00017609  ti_sysbios_knl_Swi_startup__E                                   
20009af8  ti_sysbios_knl_Task_Instance_State_0_hookEnv__A                 
200090b0  ti_sysbios_knl_Task_Instance_State_0_stack__A                   
0000a531  ti_sysbios_knl_Task_Instance_finalize__E                        
0000b771  ti_sysbios_knl_Task_Instance_init__E                            
2000a354  ti_sysbios_knl_Task_Module_State_0_idleTask__A                  
20009d54  ti_sysbios_knl_Task_Module_State_0_readyQ__A                    
0001812c  ti_sysbios_knl_Task_Module_State_inactiveQ__O                   
2000a314  ti_sysbios_knl_Task_Module__root__V                             
20009f10  ti_sysbios_knl_Task_Module__state__V                            
0000f811  ti_sysbios_knl_Task_Module_startup__E                           
00017d8c  ti_sysbios_knl_Task_Object__DESC__C                             
00017928  ti_sysbios_knl_Task_Object__PARAMS__C                           
00018130  ti_sysbios_knl_Task_Object__count__C                            
00016691  ti_sysbios_knl_Task_Object__delete__S                           
000171f9  ti_sysbios_knl_Task_Object__get__S                              
00018134  ti_sysbios_knl_Task_Object__heap__C                             
20009e80  ti_sysbios_knl_Task_Object__table__V                            
00017469  ti_sysbios_knl_Task_Params__init__S                             
000121ad  ti_sysbios_knl_Task_SupportProxy_Module__startupDone__S         
00017419  ti_sysbios_knl_Task_SupportProxy_getStackAlignment__E           
000157e1  ti_sysbios_knl_Task_SupportProxy_start__E                       
00016c0d  ti_sysbios_knl_Task_SupportProxy_swap__E                        
00018138  ti_sysbios_knl_Task_allBlockedFunc__C                           
000134f1  ti_sysbios_knl_Task_allBlockedFunction__I                       
00012ee9  ti_sysbios_knl_Task_create                                      
0001813c  ti_sysbios_knl_Task_defaultStackHeap__C                         
00018140  ti_sysbios_knl_Task_defaultStackSize__C                         
00013af5  ti_sysbios_knl_Task_delete                                      
00017209  ti_sysbios_knl_Task_disable__E                                  
000169b1  ti_sysbios_knl_Task_enter__I                                    
0000f419  ti_sysbios_knl_Task_exit__E                                     
00017e24  ti_sysbios_knl_Task_hooks__A                                    
0001800c  ti_sysbios_knl_Task_hooks__C                                    
00018144  ti_sysbios_knl_Task_numConstructedTasks__C                      
0000a119  ti_sysbios_knl_Task_postInit__I                                 
00015961  ti_sysbios_knl_Task_processVitalTaskFlag__I                     
00016419  ti_sysbios_knl_Task_restoreHwi__E                               
00015991  ti_sysbios_knl_Task_restore__E                                  
00013541  ti_sysbios_knl_Task_schedule__I                                 
00017479  ti_sysbios_knl_Task_self__E                                     
0000e589  ti_sysbios_knl_Task_setPri__E                                   
00016c59  ti_sysbios_knl_Task_sleepTimeout__I                             
0000cb71  ti_sysbios_knl_Task_sleep__E                                    
00012151  ti_sysbios_knl_Task_startCore__E                                
00017639  ti_sysbios_knl_Task_startup__E                                  
00016c19  ti_sysbios_knl_Task_swapReturn                                  
000159c1  ti_sysbios_knl_Task_unblockI__E                                 
00016da1  ti_sysbios_knl_Task_unblock__E                                  
2000a358  ti_sysbios_rts_ti_ReentSupport_Module__state__V                 
000169d1  ti_sysbios_rts_ti_ReentSupport_getReent__E                      
000169d1  ti_sysbios_rts_ti_ReentSupport_getReent__F                      
00016c71  ti_sysbios_rts_ti_ReentSupport_getTlsAddr__I                    
00017489  ti_sysbios_rts_ti_ReentSupport_taskRegHook__I                   
20009afc  timer0                                                          
20009b00  timer1                                                          
00017495  timerLEDCallback                                                
20009784  timerMSP432Objects                                              
00017ff8  tiposix_mqGate                                                  
20009704  uartMSP432Objects                                               
00017fb0  udmaMSP432HWAttrs                                               
20009b09  udmaMSP432Object                                                
00014db9  usleep                                                          
00014741  vsnprintf                                                       
0001147d  waterButtonHandler                                              
00017013  wcslen                                                          
00017fbc  wifiSimplelinkHWAttrs                                           
00000001  xdc_rov_runtime_Mon__checksum                                   
00000001  xdc_rov_runtime_Mon__write                                      
00013cf1  xdc_runtime_Core_assignParams__I                                
00010149  xdc_runtime_Core_constructObject__I                             
0000ddb9  xdc_runtime_Core_createObject__I                                
00011899  xdc_runtime_Core_deleteObject__I                                
00018148  xdc_runtime_Error_E_memory__C                                   
2000a144  xdc_runtime_Error_IgnoreBlock                                   
00016c89  xdc_runtime_Error_init__E                                       
0001814c  xdc_runtime_Error_policyFxn__C                                  
00016441  xdc_runtime_Error_policyMin__E                                  
00017775  xdc_runtime_Error_policy__C                                     
000174a1  xdc_runtime_Gate_enterSystem__E                                 
00017219  xdc_runtime_Gate_leaveSystem__E                                 
00018150  xdc_runtime_IGateProvider_Interface__BASE__C                    
00018154  xdc_runtime_IHeap_Interface__BASE__C                            
00018158  xdc_runtime_IModule_Interface__BASE__C                          
00015c69  xdc_runtime_Main_Module_GateProxy_Handle__label__S              
00017621  xdc_runtime_Main_Module_GateProxy_query__E                      
00015cc1  xdc_runtime_Memory_HeapProxy_Handle__label__S                   
00017555  xdc_runtime_Memory_HeapProxy_alloc__E                           
0001755f  xdc_runtime_Memory_HeapProxy_free__E                            
0001818e  xdc_runtime_Memory_Module__id__C                                
2000a35c  xdc_runtime_Memory_Module__state__V                             
0000fd01  xdc_runtime_Memory_alloc__E                                     
0001815c  xdc_runtime_Memory_defaultHeapInstance__C                       
00017229  xdc_runtime_Memory_free__E                                      
00016a09  xdc_runtime_Memory_valloc__E                                    
2000a31c  xdc_runtime_Startup_Module__state__V                            
00000001  xdc_runtime_Startup__EXECFXN__C                                 
00000001  xdc_runtime_Startup__RESETFXN__C                                
00018160  xdc_runtime_Startup_execImpl__C                                 
000121b1  xdc_runtime_Startup_exec__E                                     
00017025  xdc_runtime_Startup_exec__I                                     
00017fc8  xdc_runtime_Startup_firstFxns__A                                
00018014  xdc_runtime_Startup_firstFxns__C                                
0001801c  xdc_runtime_Startup_lastFxns__C                                 
00018164  xdc_runtime_Startup_maxPasses__C                                
0000b2e5  xdc_runtime_Startup_reset__I                                    
000174b1  xdc_runtime_Startup_rtsDone__E                                  
00017f0c  xdc_runtime_Startup_sfxnRts__A                                  
00018168  xdc_runtime_Startup_sfxnRts__C                                  
00017ba8  xdc_runtime_Startup_sfxnTab__A                                  
0001816c  xdc_runtime_Startup_sfxnTab__C                                  
0000a221  xdc_runtime_Startup_startMods__I                                
00018170  xdc_runtime_SysCallback_abortFxn__C                             
00017239  xdc_runtime_SysCallback_abort__E                                
00017659  xdc_runtime_SysCallback_defaultAbort                            
00017661  xdc_runtime_SysCallback_defaultExit                             
00018174  xdc_runtime_SysCallback_exitFxn__C                              
00017249  xdc_runtime_SysCallback_exit__E                                 
00015c69  xdc_runtime_System_Module_GateProxy_Handle__label__S            
00013fe5  xdc_runtime_System_Module_GateProxy_enter__E                    
00014b55  xdc_runtime_System_Module_GateProxy_leave__E                    
00017621  xdc_runtime_System_Module_GateProxy_query__E                    
2000a324  xdc_runtime_System_Module_State_0_atexitHandlers__A             
00018178  xdc_runtime_System_Module__gateObj__C                           
2000a32c  xdc_runtime_System_Module__state__V                             
00017611  xdc_runtime_System_Module_startup__E                            
00017239  xdc_runtime_System_SupportProxy_abort__E                        
00017249  xdc_runtime_System_SupportProxy_exit__E                         
0001817c  xdc_runtime_System_abortFxn__C                                  
00017669  xdc_runtime_System_abortSpin__E                                 
00016469  xdc_runtime_System_abort__E                                     
00014071  xdc_runtime_System_atexit__E                                    
00018180  xdc_runtime_System_exitFxn__C                                   
00017671  xdc_runtime_System_exitSpin__E                                  
00016ca1  xdc_runtime_System_exit__E                                      
00018184  xdc_runtime_System_maxAtexitHandlers__C                         
00014df9  xdc_runtime_System_processAtExit__E                             


GLOBAL SYMBOLS: SORTED BY Symbol Address 

address   name                                                            
-------   ----                                                            
00000000  __ASM__                                                         
00000000  ti_sysbios_family_arm_m3_Hwi_resetVectors                       
00000001  xdc_rov_runtime_Mon__checksum                                   
00000001  xdc_rov_runtime_Mon__write                                      
00000001  xdc_runtime_Startup__EXECFXN__C                                 
00000001  xdc_runtime_Startup__RESETFXN__C                                
00000041  __TI_printfi                                                    
00000078  __ISA__                                                         
0000008b  __PLAT__                                                        
000000ae  __TARG__                                                        
000000d4  __TRDR__                                                        
00000400  __STACK_SIZE                                                    
00000a8f  Board_initHook                                                  
00001379  mainThread                                                      
000018c9  _SlSocketHandleAsync_Select                                     
00002109  Network_IF_ConnectAP                                            
00002429  _SlDrvReleasePoolObj                                            
00002735  UARTMSP432_open                                                 
00002ce5  Power_sleep                                                     
00002fb9  _SlDrvWaitForPoolObj                                            
00003289  MQTTAppThread                                                   
00003541  sl_WlanProfileAdd                                               
000037f1  sl_Select                                                       
00003a9d  __mktime32                                                      
00003a9d  mktime                                                          
00003d3d  WifiInit                                                        
00003fcd  SimpleLinkSockEventHandler                                      
0000425b  NwpMaskInterrupt                                                
0000425d  SPIMSP432DMA_open                                               
00004773  NwpUnMaskInterrupt                                              
000049f9  sl_WlanConnect                                                  
00004ee5  Network_IF_InitDriver                                           
00005149  _SlDrvDataReadOp                                                
000053a5  MQTT_IF_Connect                                                 
000055f1  DisplayAppBanner                                                
00005829  MQTT_EventCallback                                              
00005a55  _SlDrvDataWriteOp                                               
00005e61  _SlNetAppEventHandler                                           
00006053  PowerMSP432_initPolicy                                          
00006055  MQTT_IF_Subscribe                                               
0000623d  SimpleLinkFatalErrorEventHandler                                
0000641f  TimerMSP432_init                                                
00006421  sl_Stop                                                         
000065fd  SimpleLinkWlanEventHandler                                      
000069a5  __aeabi_dsub                                                    
000069af  __aeabi_dadd                                                    
00006b5b  SPIMSP432DMA_control                                            
00006b61  mq_open                                                         
00006d11  sl_Accept                                                       
00006eb9  _SlDrvDriverCBInit                                              
0000705d  _SlDrvReleaseAllActivePendingPoolObj                            
00007201  MQTT_IF_Init                                                    
000073a1  SlNetSock_select                                                
000076c9  read_dht11                                                      
000079d5  SimpleLinkNetAppEventHandler                                    
00007b55  sl_Connect                                                      
00007ccd  GPIO_setConfig                                                  
00007e3d  sl_NetAppDnsGetHostByName                                       
00007fad  MQTT_IF_Deinit                                                  
00008000  HEAPSIZE                                                        
000083d5  MQTTClient_connect                                              
00008529  sl_RecvFrom                                                     
0000867d  TimerMSP432_open                                                
00008911  sl_StartTLS                                                     
00008a59  _SlDrvMsgReadSpawnCtx                                           
00008cd5  _SlSpawnMsgListInsert                                           
00008e0d  __aeabi_ddiv                                                    
00008f43  UARTMSP432_init                                                 
00008f45  _SlSocketHandleAsync_StartTLS                                   
000091a9  ti_sysbios_knl_Semaphore_pend__E                                
00009521  sl_FsOpen                                                       
00009645  SPIMSP432DMA_transfer                                           
00009885  UART_initModule                                                 
000099a1  sl_Start                                                        
00009abd  _SlNetAppHandleAsync_DnsGetHostByService                        
00009bd5  MQTT_PacketRecv                                                 
00009ce7  _nop                                                            
00009ce9  ldexp                                                           
00009ce9  ldexpl                                                          
00009ce9  scalbn                                                          
00009ce9  scalbnl                                                         
00009df9  strtoul                                                         
0000a119  ti_sysbios_knl_Task_postInit__I                                 
0000a221  xdc_runtime_Startup_startMods__I                                
0000a329  _SlDeviceEventHandler                                           
0000a42d  _SlDrvCmdOp                                                     
0000a531  ti_sysbios_knl_Task_Instance_finalize__E                        
0000a635  MQTTClientCallback                                              
0000a735  _SlDrvObjGlobalLockWaitForever                                  
0000a835  sl_FsWrite                                                      
0000a935  SPIMSP432DMA_transferCancel                                     
0000ab2d  __aeabi_dmul                                                    
0000ac29  MqttClientCtxCreate                                             
0000ad21  SlNetIfWifi_loadSecObj                                          
0000ae19  sl_Close                                                        
0000b009  MQTTNet_commOpen                                                
0000b0ff  __aeabi_idiv0                                                   
0000b0ff  __aeabi_ldiv0                                                   
0000b101  sl_SendTo                                                       
0000b1f5  DMA_setChannelTransfer                                          
0000b2e5  ti_sysbios_family_arm_msp432_init_Boot_init__I                  
0000b2e5  xdc_runtime_Startup_reset__I                                    
0000b2e9  pthread_create                                                  
0000b3d9  ti_sysbios_family_arm_m3_Hwi_dispatch__I                        
0000b4ad  ti_sysbios_family_arm_m3_Hwi_interruptsAreDisabledButShouldNotBe
0000b4c9  CS_startHFXTWithTimeout                                         
0000b5ad  SlNetIf_add                                                     
0000b691  CS_startLFXTWithTimeout                                         
0000b771  ti_sysbios_knl_Task_Instance_init__E                            
0000b92f  ti_sysbios_BIOS_nullFunc__I                                     
0000b931  UARTMSP432_readPolling                                          
0000ba0d  UDMAMSP432_close                                                
0000bbc5  GetCmd                                                          
0000bc9d  _SlDeviceHandleAsync_InitComplete                               
0000bd75  _SlDrvWaitForInternalAsyncEvent                                 
0000be4d  _SlNetAppHandleAsync_NetAppReceive                              
0000bf25  CPU_wfi                                                         
0000bf29  ti_sysbios_knl_Mailbox_Instance_init__E                         
0000c001  _SlDrvDriverCBDeinit                                            
0000c1a1  ti_sysbios_heaps_HeapMem_alloc__E                               
0000c33d  UARTMSP432_hwiIntFxn                                            
0000c401  clock_gettime                                                   
0000c4c5  MQTT_IF_Disconnect                                              
0000c585  MqttClientSub                                                   
0000c645  UARTMSP432_control                                              
0000c705  sl_NetCfgGet                                                    
0000c7c5  TimerMSP432_setPeriod                                           
0000c881  TimerMSP432_start                                               
0000c93d  _SlNetAppSendResponse                                           
0000cab5  sl_Send                                                         
0000cb71  ti_sysbios_knl_Task_sleep__E                                    
0000cc2d  _SlNetAppHandleAsync_DnsGetHostByName                           
0000cce5  _SlNetAppHandleAsync_PingResponse                               
0000cd9d  dht11_init                                                      
0000cf0d  pushButtonConnectionHandler                                     
0000d07d  sl_DeviceGet                                                    
0000d135  sl_WlanGet                                                      
0000d1ed  ClockP_setTimeout                                               
0000d1f1  ti_sysbios_family_arm_m3_Hwi_Instance_init__E                   
0000d2a9  MqttClient_send                                                 
0000d35d  UARTMSP432_writePolling                                         
0000d411  _SlDrvHandleFatalError                                          
0000d4c5  _SlNetUtilHandleAsync_Cmd                                       
0000d579  sl_GetSockOpt                                                   
0000d62d  spi_Read                                                        
0000d6e1  spi_Write                                                       
0000d847  SPI_initMaster                                                  
0000d8f9  SlNetIfWifi_getSockOpt                                          
0000d9a9  ti_sysbios_knl_Clock_workFuncDynamic__E                         
0000da59  matchModeByRole                                                 
0000db09  GPIO_init                                                       
0000dbb5  _SlSocketHandleAsync_Close                                      
0000dc61  _SlSocketHandleAsync_Connect                                    
0000dd0d  controlTopicCB                                                  
0000ddb9  xdc_runtime_Core_createObject__I                                
0000de65  Network_IF_IpConfigGet                                          
0000dfb5  sl_FsClose                                                      
0000e05d  ClockP_start                                                    
0000e061  ti_sysbios_family_arm_msp432_Timer_periodicStub__E              
0000e109  Report                                                          
0000e1af  _SlDrvIsTimeoutExpired                                          
0000e255  MQTTClient_create                                               
0000e2f9  MQTTClient_delete                                               
0000e39d  MqttClientConfig                                                
0000e4e5  sl_Bind                                                         
0000e589  ti_sysbios_knl_Task_setPri__E                                   
0000e62d  UARTMSP432_write                                                
0000e811  _SlSpawnMsgListProcess                                          
0000e8b1  __TI_auto_init                                                  
0000e9f1  MQTTClientCore_initLib                                          
0000ea8d  MQTTClientCore_sendPubMsg                                       
0000ebc5  __aeabi_memcpy                                                  
0000ebc5  __aeabi_memcpy4                                                 
0000ebc5  __aeabi_memcpy8                                                 
0000ebc5  memcpy                                                          
0000ee35  MQTT_IF_Publish                                                 
0000eecd  TrimSpace                                                       
0000ef65  UARTMSP432_close                                                
0000effd  MQTTNet_tcpSelect                                               
0000f093  __aeabi_uldivmod                                                
0000f129  Semaphore_pend_handle                                           
0000f1bd  UDMAMSP432_init                                                 
0000f251  UDMAMSP432_open                                                 
0000f2e5  ClockP_stop                                                     
0000f2e9  _pthread_removeThreadKeys                                       
0000f37d  HwiP_clearInterrupt                                             
0000f381  ti_sysbios_family_arm_m3_Hwi_initNVIC__E                        
0000f415  HwiP_disable                                                    
0000f419  ti_sysbios_knl_Task_exit__E                                     
0000f4ad  SlNetSock_create                                                
0000f661  _SlDeviceHandleAsync_Stop                                       
0000f6f1  _SlSocketHandleAsync_Accept                                     
0000f811  ti_sysbios_knl_Task_Module_startup__E                           
0000f8a1  MQTTClientCore_createCtx                                        
0000f92d  Power_init                                                      
0000f9b9  SlNetSock_accept                                                
0000fa45  _SlDrvDriverIsApiAllowed                                        
0000fad1  _SlDrvProtectAsyncRespSetting                                   
0000fbe9  sl_Recv                                                         
0000fc75  ti_sysbios_family_arm_m3_TaskSupport_buildTaskStack             
0000fd01  xdc_runtime_Memory_alloc__E                                     
0000fe15  sl_UnregisterLibsEventHandler                                   
0000fe9d  HwiP_disableInterrupt                                           
0000fea1  ti_sysbios_knl_Mailbox_post__E                                  
0000ffb1  __aeabi_cdcmpeq                                                 
0000ffb1  __aeabi_cdcmple                                                 
00010037  __aeabi_cdrcmple                                                
00010143  TimerMSP432_control                                             
00010149  xdc_runtime_Core_constructObject__I                             
000101cf  MQTTHelperTopicMatching                                         
00010255  PCM_gotoLPM3                                                    
000102d9  SlNetIfWifi_sockstartSec                                        
0001035d  SlNetUtil_getHostByName                                         
000103e1  TimerMSP432_stop                                                
0001056d  sl_SetSockOpt                                                   
000105f1  ti_sysbios_family_arm_m3_Hwi_postInit__I                        
00010675  HwiP_enableInterrupt                                            
00010679  ti_sysbios_heaps_HeapMem_free__E                                
0001077d  MQTTContextThread                                               
000107f9  _pthread_abstime2ticks                                          
000108f1  __aeabi_memclr                                                  
000108f1  __aeabi_memclr4                                                 
000108f1  __aeabi_memclr8                                                 
000108f3  __aeabi_memset                                                  
000108f3  __aeabi_memset4                                                 
000108f3  __aeabi_memset8                                                 
000108f9  memset                                                          
0001096d  MQTTNet_recvFrom                                                
000109e5  TimerMSP432_allocateTimerResource                               
00010a5d  sl_Socket                                                       
00010ad5  formatdata                                                      
00010b4d  MQTTNet_tcpAccept                                               
00010ca9  ti_sysbios_knl_Clock_walkQueueDynamic__E                        
00010d1d  SPIMSP432DMA_init                                               
00010d21  ti_sysbios_knl_Mailbox_pend__E                                  
00010d95  MQTT_packetProcPubRx                                            
00010e09  SlNetSock_secAttribSet                                          
00010e79  _SlDrvCmdSend_noLock                                            
00010f59  ti_sysbios_heaps_HeapMem_initPrimary__I                         
00010fc9  ti_sysbios_knl_Mailbox_Instance_finalize__E                     
000110a7  __aeabi_ldivmod                                                 
00011115  MQTTClient_run                                                  
00011181  NwpRegisterInterruptHandler                                     
00011259  _SlDeviceHandleResetRequestInternally                           
00011331  _SlNetAppSendTokenValue                                         
0001139d  SemaphoreP_post                                                 
000113a1  ti_sysbios_family_arm_msp432_Seconds_get__E                     
000113a1  ti_sysbios_hal_Seconds_SecondsProxy_get__E                      
000113a1  ti_sysbios_hal_Seconds_get__E                                   
0001140d  SlNetIf_init                                                    
00011411  ti_sysbios_knl_Swi_restoreHwi__E                                
0001147d  waterButtonHandler                                              
000114e9  MQTTNet_sendTo                                                  
00011553  UARTMSP432_writeCancel                                          
000115bd  GPIO_hwiIntFxn                                                  
00011625  MQTT_qos2PubCqUnlog                                             
0001168d  PowerMSP432_getFreqs                                            
000116f5  _SlSpawnMsgListGetCount                                         
0001175d  __TI_decompress_lzss                                            
000117c5  main                                                            
0001182d  SlNetUtil_init                                                  
00011831  ti_sysbios_knl_Clock_startI__E                                  
00011899  xdc_runtime_Core_deleteObject__I                                
000118ff  MQTT_packetPubAppendTopic                                       
00011963  SPIMSP432DMA_close                                              
00011a91  frexp                                                           
00011a91  frexpl                                                          
00011af9  ti_sysbios_family_arm_m3_Hwi_dispatchC__I                       
00011b5d  GPIO_setCallback                                                
00011bbd  SlNetSock_recvFrom                                              
00011c1d  SlNetSock_sendTo                                                
00011c81  pthread_exit                                                    
00011ce1  spi_Open                                                        
00011d41  ti_sysbios_family_arm_msp432_Timer_setNextTick__E               
00011da1  ti_sysbios_knl_Semaphore_post__E                                
00011e01  ti_sysbios_knl_Swi_run__I                                       
00011e61  PCM_getCoreVoltageLevel                                         
00011ebf  SlNetIfWifi_setSockOpt                                          
00011f1d  InitTerm                                                        
00011f79  MQTTClientCore_exitLib                                          
00011fd5  MQTTNet_tcpListen                                               
00012031  _SlInternalSpawn                                                
0001208d  ti_sysbios_BIOS_RtsGateProxy_enter__E                           
00012091  ti_sysbios_family_arm_msp432_Timer_getCurrentTick__E            
000120ed  ti_sysbios_BIOS_RtsGateProxy_leave__E                           
000120f1  ti_sysbios_knl_Swi_schedule__I                                  
0001214d  ti_sysbios_family_arm_m3_Hwi_delete                             
00012151  ti_sysbios_knl_Task_startCore__E                                
000121ad  ti_sysbios_family_arm_m3_TaskSupport_Module__startupDone__S     
000121ad  ti_sysbios_knl_Task_SupportProxy_Module__startupDone__S         
000121b1  xdc_runtime_Startup_exec__E                                     
0001220d  PCM_getPowerMode                                                
00012269  GPIO_write                                                      
000122c1  SlNetSock_recv                                                  
00012319  SlNetSock_send                                                  
000123c9  _c_int00                                                        
00012529  sl_Listen                                                       
00012581  sl_RegisterLibsEventHandler                                     
000125d9  ti_sysbios_family_arm_m3_Hwi_initStacks__E                      
00012631  MQTT_packetPubAppendData                                        
00012735  MQTTClientCore_deleteCtx                                        
00012789  MQTTClientCore_sendDisconn                                      
000127dd  PCM_shutdownDevice                                              
00012831  TimerMSP432_freeTimerResource                                   
00012885  __TI_ltoa                                                       
00012981  ti_sysbios_family_arm_m3_Hwi_create                             
000129d5  ti_sysbios_heaps_HeapMem_Module_GateProxy_enter__E              
000129d9  ti_sysbios_family_arm_msp432_Timer_initDevice__I                
00012a2d  ti_sysbios_knl_Mailbox_create                                   
00012ad5  ClockP_create                                                   
00012b25  SlNetIf_queryIf                                                 
00012c65  _SlDrvCmdSend_noWait                                            
00012d05  _SlInternalSpawnTaskEntry                                       
00012d55  _SlNetAppHttpServerHdlr                                         
00012da5  _SlNetAppRequestHdlr                                            
00012e45  ti_sysbios_heaps_HeapMem_Module_GateProxy_leave__E              
00012e49  mq_send                                                         
00012e99  ti_sysbios_family_arm_m3_Hwi_Module_startup__E                  
00012ee9  ti_sysbios_knl_Task_create                                      
00012f39  MQTTClientCore_registerWillInfo                                 
00012f87  TimerMSP432_close                                               
00012fd5  PowerMSP432_sleepPolicy                                         
00013021  SlNetIfWifi_getConnectionStatus                                 
000130b9  SlNetSock_startSec                                              
00013151  atoi                                                            
0001319d  copy_in                                                         
000131e9  countHandler                                                    
00013319  sl_WlanSetMode                                                  
00013365  snprintf                                                        
000133b1  ti_sysbios_family_arm_msp432_Timer_postInit__I                  
000133fd  ti_sysbios_knl_Clock_TimerProxy_getCurrentTick__E               
00013401  ti_sysbios_family_arm_msp432_Timer_start__E                     
0001344d  ti_sysbios_knl_Clock_TimerProxy_getMaxTicks__E                  
00013451  ti_sysbios_heaps_HeapMem_getStats__E                            
0001349d  ti_sysbios_knl_Clock_TimerProxy_setNextTick__E                  
000134a1  ti_sysbios_knl_Swi_runLoop__I                                   
000134ed  ti_sysbios_knl_Clock_delete                                     
000134f1  ti_sysbios_knl_Task_allBlockedFunction__I                       
0001353d  ti_sysbios_knl_Semaphore_delete                                 
00013541  ti_sysbios_knl_Task_schedule__I                                 
0001358d  ToggleLED1CB                                                    
000135d9  ToggleLED2CB                                                    
00013625  ToggleLED3CB                                                    
000136bd  MQTTClient_set                                                  
00013705  Power_releaseConstraint                                         
0001374d  SlNetSock_connect                                               
00013795  SlNetSock_init                                                  
000137dd  SlNetSock_setOpt                                                
00013825  _SlDeviceFatalErrorEvtHdlr                                      
0001386d  _SlDeviceGeneralEvtHdlr                                         
000138b5  _SlDrvBasicCmd                                                  
000138fd  _SlDrvSyncObjWaitTimeout                                        
00013945  _SlNetAppEvtHdlr                                                
0001398d  _SlNetAppRequestMemFree                                         
000139d5  _SlSockEvtHdlr                                                  
00013a1d  _SlWlanEvtHdlr                                                  
00013af5  ti_sysbios_knl_Task_delete                                      
00013af9  mq_close                                                        
00013b41  pthread_mutex_init                                              
00013b89  __aeabi_d2iz                                                    
00013bd1  ti_sysbios_family_arm_m3_Hwi_disableInterrupt__E                
00013bd1  ti_sysbios_hal_Hwi_HwiProxy_disableInterrupt__E                 
00013bd1  ti_sysbios_hal_Hwi_disableInterrupt__E                          
00013c19  ti_sysbios_family_arm_m3_Hwi_enableInterrupt__E                 
00013c19  ti_sysbios_hal_Hwi_HwiProxy_enableInterrupt__E                  
00013c19  ti_sysbios_hal_Hwi_enableInterrupt__E                           
00013c61  ti_sysbios_knl_Mailbox_Module_startup__E                        
00013cf1  xdc_runtime_Core_assignParams__I                                
00013d39  RingBuf_put                                                     
00013d81  MQTTClientCore_run                                              
00013dc5  MQTTNet_tcpRecv                                                 
00013e09  MqttClientCtxDelete                                             
00013e4d  SPI_init                                                        
00013ed5  Timer_init                                                      
00013f19  UART_init                                                       
00013f5d  _SlDrvRxIrqHandler                                              
00013fa1  ti_sysbios_family_arm_m3_Hwi_getStackInfo__E                    
00013fa1  ti_sysbios_hal_Hwi_HwiProxy_getStackInfo__E                     
00013fa1  ti_sysbios_hal_Hwi_getStackInfo__E                              
00013fe5  xdc_runtime_System_Module_GateProxy_enter__E                    
00013fe9  ti_sysbios_knl_Swi_post__E                                      
00014071  xdc_runtime_System_atexit__E                                    
000140b5  BrokerCB                                                        
000140f9  infoTopicCB                                                     
0001413d  MQTT_packetBufRdRemlen                                          
000141c1  HwiP_create                                                     
00014201  InitializeAppVariables                                          
00014241  MQTTClientCore_registerCtxInfo                                  
00014281  RingBuf_get                                                     
000142c1  SPI_open                                                        
00014301  SimpleLinkGeneralEventHandler                                   
00014341  SlNetSock_bind                                                  
00014381  Timer_open                                                      
000143c1  UARTMSP432_read                                                 
00014401  UART_open                                                       
00014441  _SlFindAndReleasePendingCmd                                     
00014481  _SlInternalSpawnWaitForEvent                                    
000144c1  _SlIsEventRegistered                                            
00014501  _sl_ExtLib_ServerAckLockedWait                                  
00014581  mq_receive                                                      
00014641  ti_sysbios_family_arm_msp432_Timer_Module_startup__E            
00014681  ti_sysbios_family_arm_msp432_Timer_startup__E                   
00014681  ti_sysbios_knl_Clock_TimerProxy_startup__E                      
000146c1  ti_sysbios_heaps_HeapMem_Instance_init__E                       
00014701  ti_sysbios_knl_Clock_Instance_init__E                           
00014741  vsnprintf                                                       
00014781  MQTT_packetAckWlistRemove                                       
000147bf  MQTT_packetBufTailWrRemlen                                      
000147fd  SlNetSock_close                                                 
00014933  realloc                                                         
00014971  sem_timedwait                                                   
000149b1  MQTTClientCore_registerBuffers                                  
000149ed  MQTTClient_disconnect                                           
00014a29  MQTT_qos2PubCqCheck                                             
00014a65  Network_IF_DisconnectFromAP                                     
00014aa1  SemaphoreP_create                                               
00014b55  xdc_runtime_System_Module_GateProxy_leave__E                    
00014b59  pthread_mutex_unlock                                            
00014b95  sendinfo                                                        
00014c11  sleep                                                           
00014c89  ti_sysbios_family_arm_m3_Hwi_Instance_finalize__E               
00014cc9  ti_sysbios_family_arm_msp432_Seconds_Module_startup__E          
00014d05  ti_sysbios_knl_Clock_create                                     
00014d41  ti_sysbios_knl_Swi_restore__E                                   
00014db9  usleep                                                          
00014df9  xdc_runtime_System_processAtExit__E                             
00014e35  SlNetIfWifi_getIPAddr                                           
00014ea9  GPIO_toggle                                                     
00014ee1  MQTTClientCore_registerNetSvc                                   
00014f19  MQTT_qos2PubCqLogup                                             
00014f51  Power_setConstraint                                             
00014f89  SlNetIfWifi_recvFrom                                            
00014fc1  SlNetIfWifi_sendTo                                              
00014ff9  SlNetIfWifi_socket                                              
00015069  SlNetSock_listen                                                
000150a1  SlNetUtil_htonl                                                 
000150a1  SlNetUtil_ntohl                                                 
000150d9  TimerMSP432_getCount                                            
000151b9  Network_IF_DeInitDriver                                         
000151f1  MQTT_packetPrepFh                                               
00015227  SlNetIfWifi_getHostByName                                       
0001525d  SlNetIfWifi_select                                              
00015293  UARTMSP432_readCancel                                           
000152ff  strncpy                                                         
00015335  GPIO_clearInt                                                   
00015369  GPIO_disableInt                                                 
0001539d  GPIO_enableInt                                                  
000153d1  SlNetUtil_htons                                                 
000153d1  SlNetUtil_ntohs                                                 
000154a1  ti_sysbios_knl_Semaphore_create                                 
000154d5  MQTT_clCtxTimeoutInsert                                         
00015539  ti_sysbios_hal_Hwi_initStack                                    
0001556d  HostIrqGPIO_callback                                            
0001559d  _SlDrvGlobalObjUnLock                                           
00015781  ti_sysbios_BIOS_atExitFunc__I                                   
000157b1  ti_sysbios_BIOS_startFunc__I                                    
000157e1  ti_sysbios_family_arm_m3_TaskSupport_start__E                   
000157e1  ti_sysbios_knl_Task_SupportProxy_start__E                       
00015811  ti_sysbios_gates_GateHwi_Object__create__S                      
00015841  ti_sysbios_gates_GateMutex_Object__create__S                    
00015871  ti_sysbios_gates_GateMutex_enter__E                             
000158a1  ti_sysbios_heaps_HeapMem_Object__create__S                      
000158d1  ti_sysbios_knl_Mailbox_postInit__I                              
00015901  ti_sysbios_knl_Semaphore_construct                              
00015931  ti_sysbios_knl_Semaphore_pendTimeout__I                         
00015961  ti_sysbios_knl_Task_processVitalTaskFlag__I                     
00015991  ti_sysbios_knl_Task_restore__E                                  
000159c1  ti_sysbios_knl_Task_unblockI__E                                 
000159f1  Mutex_create_handle                                             
00015a1f  __aeabi_i2d                                                     
00015a4d  malloc                                                          
00015a7b  PowerMSP432_updateFreqs                                         
00015aa9  RTC_C_holdClock                                                 
00015ad5  SemaphoreP_createBinary                                         
00015b01  SlNetIfWifi_recv                                                
00015b2d  SlNetIfWifi_send                                                
00015b59  _SlDrvSyncObjWaitForever                                        
00015b89  _pthread_cleanupFxn                                             
00015c69  ti_sysbios_gates_GateHwi_Handle__label__S                       
00015c69  xdc_runtime_Main_Module_GateProxy_Handle__label__S              
00015c69  xdc_runtime_System_Module_GateProxy_Handle__label__S            
00015c95  ti_sysbios_BIOS_RtsGateProxy_Handle__label__S                   
00015c95  ti_sysbios_gates_GateMutex_Handle__label__S                     
00015c95  ti_sysbios_heaps_HeapMem_Module_GateProxy_Handle__label__S      
00015cc1  ti_sysbios_heaps_HeapMem_Handle__label__S                       
00015cc1  xdc_runtime_Memory_HeapProxy_Handle__label__S                   
00015ced  ti_sysbios_knl_Queue_construct                                  
00015d19  SlNetUtil_inetPton                                              
00015d6d  calloc                                                          
00015df1  sem_init                                                        
00015e45  MQTT_packetBufWrUtf8                                            
00015e6d  PCM_gotoLPM0                                                    
00015e95  Power_registerNotify                                            
00015ebd  SPI_getInterruptStatus                                          
00015ee5  SlNetIf_getIfByID                                               
00015f0d  SlNetSock_sdsIsSet                                              
00015f35  SlNetSock_sdsSet                                                
00015f5d  SlNetSock_secAttribDelete                                       
00015f85  _SlFlowContSet                                                  
00015fd5  _sl_ExtLib_AwaitedAckLockedSet                                  
00016075  memmove                                                         
0001609d  ti_sysbios_family_arm_m3_Hwi_excHandlerAsm__I                   
000160c9  ti_sysbios_knl_Clock_addI__E                                    
000160f1  ti_sysbios_knl_Swi_Module_startup__E                            
00016119  List_put                                                        
0001613f  List_remove                                                     
00016165  MQTT_clCtxRemove                                                
0001618b  ti_sysbios_family_arm_m3_Hwi_pendSV__I                          
000161af  ti_sysbios_family_arm_m3_Hwi_return                             
000161b1  SlNetIf_getConnectionStatus                                     
000161d5  WDT_A_holdTimer                                                 
000161f9  _SlDrvIsApiInProgress                                           
0001621d  _SlDrvStartMeasureTimeout                                       
00016265  memcmp                                                          
00016289  pthread_attr_init                                               
000162d1  sl_WlanDisconnect                                               
000162f5  ti_sysbios_BIOS_registerRTSLock__I                              
00016319  ti_sysbios_BIOS_removeRTSLock__I                                
00016341  ti_sysbios_family_arm_msp432_ClockFreqs_setFrequency__E         
00016365  ti_sysbios_gates_GateMutex_Object__delete__S                    
00016389  ti_sysbios_knl_Clock_Module_startup__E                          
000163ad  ti_sysbios_knl_Clock_Object__delete__S                          
000163d1  ti_sysbios_knl_Semaphore_Instance_init__E                       
000163f5  ti_sysbios_knl_Semaphore_Object__delete__S                      
00016419  ti_sysbios_knl_Task_restoreHwi__E                               
00016441  xdc_runtime_Error_policyMin__E                                  
00016469  xdc_runtime_System_abort__E                                     
0001648d  MQTT_packetProcMsgIdAckRx                                       
000164b1  CS_setExternalClockSourceFrequency                              
000164d1  MQTT_qos2PubCqReset                                             
000164f1  Power_unregisterNotify                                          
00016511  RingBuf_peek                                                    
00016531  SlNetIfWifi_accept                                              
00016551  sem_trywait                                                     
00016591  ti_sysbios_BIOS_rtsLock__I                                      
000165b1  ti_sysbios_family_arm_m3_Hwi_Object__delete__S                  
000165d1  ti_sysbios_family_arm_m3_Hwi_clearInterrupt__E                  
000165d1  ti_sysbios_hal_Hwi_HwiProxy_clearInterrupt__E                   
000165d1  ti_sysbios_hal_Hwi_clearInterrupt__E                            
000165f1  ti_sysbios_gates_GateHwi_Object__delete__S                      
00016611  ti_sysbios_heaps_HeapMem_Object__delete__S                      
00016631  ClockP_getSystemTicks                                           
00016631  ti_sysbios_knl_Clock_getTicks__E                                
00016651  ti_sysbios_knl_Idle_run__E                                      
00016671  ti_sysbios_knl_Semaphore_destruct                               
00016691  ti_sysbios_knl_Task_Object__delete__S                           
000166b1  MQTTClientCore_alloc                                            
000166cf  MQTTClientCore_ctxRun                                           
000166ed  SlNetIfWifi_bind                                                
0001670b  SlNetIfWifi_connect                                             
00016765  ti_sysbios_family_xxx_Hwi_switchAndRunFunc                      
00016785  Message                                                         
000167a1  NwpPowerOff                                                     
000167bd  NwpPowerOn                                                      
000167d9  WiFi_init                                                       
00016811  _SlInternalIsItSpawnThread                                      
0001689d  memccpy                                                         
000168d9  ti_sysbios_family_arm_m3_Hwi_excHandler__I                      
000168f9  ti_sysbios_gates_GateMutex_Instance_init__E                     
00016919  ti_sysbios_knl_Clock_Instance_finalize__E                       
00016939  ti_sysbios_knl_Clock_scheduleNextTick__E                        
00016955  ti_sysbios_knl_Queue_destruct                                   
00016971  ti_sysbios_knl_Queue_get__E                                     
00016991  ti_sysbios_knl_Queue_put__E                                     
000169b1  ti_sysbios_knl_Task_enter__I                                    
000169d1  ti_sysbios_rts_ti_ReentSupport_getReent__E                      
000169d1  ti_sysbios_rts_ti_ReentSupport_getReent__F                      
00016a09  xdc_runtime_Memory_valloc__E                                    
00016a25  MQTT_packetAckWlistPurge                                        
00016a3f  SlNetIfWifi_listen                                              
00016a59  copysign                                                        
00016a59  copysignl                                                       
00016a73  free                                                            
00016a8d  EUSCI_A_SPI_getInterruptStatus                                  
00016aa5  EUSCI_B_SPI_getInterruptStatus                                  
00016abd  MQTT_clCtxTimeoutUpdate                                         
00016ad5  SysCtl_A_disableNMISource                                       
00016aed  SysCtl_A_enableNMISource                                        
00016b05  UART_Params_init                                                
00016b1d  _SlDrvProtectionObjLockWaitForever                              
00016b35  _SlDrvProtectionObjUnLock                                       
00016b4d  _args_main                                                      
00016bc5  strcmp                                                          
00016bdd  ti_sysbios_BIOS_rtsUnlock__I                                    
00016bf5  ti_sysbios_family_arm_m3_Hwi_Module__startupDone__F             
00016bf5  ti_sysbios_family_arm_m3_Hwi_Module__startupDone__S             
00016bf5  ti_sysbios_hal_Hwi_HwiProxy_Module__startupDone__S              
00016c0d  ti_sysbios_family_arm_m3_TaskSupport_swap__E                    
00016c0d  ti_sysbios_knl_Task_SupportProxy_swap__E                        
00016c19  ti_sysbios_knl_Task_swapReturn                                  
00016c25  ti_sysbios_family_arm_msp432_Timer_Module__startupDone__F       
00016c25  ti_sysbios_family_arm_msp432_Timer_Module__startupDone__S       
00016c25  ti_sysbios_knl_Clock_TimerProxy_Module__startupDone__S          
00016c41  ti_sysbios_gates_GateMutex_leave__E                             
00016c59  ti_sysbios_knl_Task_sleepTimeout__I                             
00016c71  ti_sysbios_rts_ti_ReentSupport_getTlsAddr__I                    
00016c89  xdc_runtime_Error_init__E                                       
00016ca1  xdc_runtime_System_exit__E                                      
00016cb9  MQTTNet_commClose                                               
00016ccf  MQTT_clCtxReset                                                 
00016ce5  MQTT_packetFree                                                 
00016cfb  MQTT_packetInit                                                 
00016d11  _SlDrvMemZero                                                   
00016d41  pthread_mutex_destroy                                           
00016d57  strchr                                                          
00016d6d  ti_sysbios_BIOS_exitFunc__I                                     
00016d89  ti_sysbios_knl_Clock_start__E                                   
00016da1  ti_sysbios_knl_Task_unblock__E                                  
00016db9  ClockP_usleep                                                   
00016dcd  MQTTClient_publish                                              
00016de1  MQTTNet_rtcSecs                                                 
00016df5  MQTT_packetAckWlistAppend                                       
00016e09  MQTT_packetReset                                                
00016e1d  PCM_getPowerState                                               
00016e31  Power_idleFunc                                                  
00016e45  SPI_Params_init                                                 
00016e59  SlNetSock_sdsClrAll                                             
00016e99  pthread_attr_setschedparam                                      
00016ead  strcpy                                                          
00016ec1  strlen                                                          
00016ed5  ti_sysbios_family_arm_m3_Hwi_Object__get__S                     
00016ee9  ti_sysbios_family_arm_m3_Hwi_switchFromBootStack__E             
00016ee9  ti_sysbios_hal_Hwi_HwiProxy_switchFromBootStack__E              
00016ee9  ti_sysbios_hal_Hwi_switchFromBootStack__E                       
00016efd  ti_sysbios_heaps_HeapMem_Object__get__S                         
00016f11  ti_sysbios_knl_Clock_doTick__I                                  
00016f25  ti_sysbios_knl_Swi_Object__get__S                               
00016f61  RingBuf_construct                                               
00016f73  SemaphoreP_pend                                                 
00016f85  SlNetIfWifi_close                                               
00016f99  _pthread_cleanup_pop                                            
00016fe9  ti_sysbios_family_arm_msp432_Seconds_getTime__E                 
00016fe9  ti_sysbios_hal_Seconds_SecondsProxy_getTime__E                  
00016fe9  ti_sysbios_hal_Seconds_getTime__E                               
00017001  ti_sysbios_hal_Hwi_Module_startup__E                            
00017013  wcslen                                                          
00017025  xdc_runtime_Startup_exec__I                                     
00017037  HwiP_Params_init                                                
00017047  PCM_gotoLPM4                                                    
00017057  PCM_setPowerMode                                                
00017067  PCM_setPowerState                                               
00017079  PowerMSP432_getNumPerfLevels                                    
00017089  SlNetSock_secAttribCreate                                       
00017099  SysCtl_A_getNMISourceStatus                                     
000170a9  Timer_Params_init                                               
000170b9  _SlDrvDispatchHttpServerEvents                                  
000170c9  _SlDrvDispatchNetAppRequestEvents                               
000170d9  _SlDrvIsSpawnOwnGlobalLock                                      
00017129  pthread_mutexattr_init                                          
00017139  pthread_mutexattr_settype                                       
00017159  ti_sysbios_BIOS_exit__E                                         
00017169  ti_sysbios_BIOS_setCpuFreq__E                                   
00017179  ti_sysbios_BIOS_setThreadType__E                                
00017189  ti_sysbios_BIOS_start__E                                        
00017199  ti_sysbios_family_arm_m3_TaskSupport_glue                       
000171a9  ti_sysbios_family_arm_msp432_init_Boot_disableWatchdog          
000171b9  ti_sysbios_gates_GateMutex_Instance_finalize__E                 
000171c9  ti_sysbios_knl_Mailbox_Object__get__S                           
000171d9  ti_sysbios_knl_Semaphore_Instance_finalize__E                   
000171e9  ti_sysbios_knl_Swi_disable__E                                   
000171f9  ti_sysbios_knl_Task_Object__get__S                              
00017209  ti_sysbios_knl_Task_disable__E                                  
00017219  xdc_runtime_Gate_leaveSystem__E                                 
00017229  xdc_runtime_Memory_free__E                                      
00017239  xdc_runtime_SysCallback_abort__E                                
00017239  xdc_runtime_System_SupportProxy_abort__E                        
00017249  xdc_runtime_SysCallback_exit__E                                 
00017249  xdc_runtime_System_SupportProxy_exit__E                         
00017259  MQTTClient_subscribe                                            
00017267  _SlDrvObjLockWaitForever                                        
00017275  _SlDrvObjUnLock                                                 
00017283  _SlDrvResetCmdExt                                               
00017291  _SlDrvSyncObjSignal                                             
0001729f  _sl_ExtLib_AwaitedAckSet                                        
000172bb  __TI_decompress_none                                            
000172c9  pthread_attr_setdetachstate                                     
000172d9  sem_wait                                                        
000172e7  spi_Close                                                       
000172f9  ti_sysbios_knl_Idle_loop__E                                     
00017307  Board_init                                                      
00017313  CPU_cpsid                                                       
0001731f  CPU_cpsie                                                       
0001732b  ClockP_delete                                                   
00017339  ClockP_getSystemTickPeriod                                      
00017345  HwiP_delete                                                     
00017351  MQTTClientCore_sendConnectMsg                                   
0001735d  MQTT_secureConnStructInit                                       
00017369  Network_IF_ResetMCUStateMachine                                 
00017375  Power_getConstraintMask                                         
00017381  Power_getPerformanceLevel                                       
0001738d  SemaphoreP_delete                                               
00017399  SimpleLinkHttpServerEventHandler                                
000173a5  SimpleLinkNetAppRequestEventHandler                             
000173b1  _SlDeviceResetRequestInitCompletedCB                            
000173bd  _register_lock                                                  
000173c9  _register_unlock                                                
000173e1  __TI_zero_init                                                  
000173f1  pthread_self                                                    
000173fd  ti_sysbios_family_arm_m3_Hwi_Params__init__S                    
000173fd  ti_sysbios_hal_Hwi_HwiProxy_Params__init__S                     
00017409  ti_sysbios_family_arm_m3_Hwi_disableFxn__E                      
00017409  ti_sysbios_hal_Hwi_HwiProxy_disable__E                          
00017419  ti_sysbios_family_arm_m3_TaskSupport_getStackAlignment__E       
00017419  ti_sysbios_knl_Task_SupportProxy_getStackAlignment__E           
00017429  ti_sysbios_family_arm_msp432_Timer_getMaxTicks__E               
00017439  ti_sysbios_gates_GateHwi_enter__E                               
00017445  ti_sysbios_knl_Clock_Params__init__S                            
00017451  ti_sysbios_knl_Queue_Object__get__S                             
0001745d  ti_sysbios_knl_Semaphore_Params__init__S                        
00017469  ti_sysbios_knl_Task_Params__init__S                             
00017479  ti_sysbios_knl_Task_self__E                                     
00017489  ti_sysbios_rts_ti_ReentSupport_taskRegHook__I                   
00017495  timerLEDCallback                                                
000174a1  xdc_runtime_Gate_enterSystem__E                                 
000174b1  xdc_runtime_Startup_rtsDone__E                                  
000174bd  ClockP_Params_init                                              
000174c7  SPI_close                                                       
000174d1  SPI_transfer                                                    
000174db  SimpleLinkNetAppRequestMemFreeEventHandler                      
000174e5  Timer_close                                                     
000174ef  Timer_getCount                                                  
000174f9  Timer_start                                                     
00017503  Timer_stop                                                      
0001750d  UART_control                                                    
00017517  UART_readPolling                                                
00017521  UART_writePolling                                               
00017531  sem_destroy                                                     
00017541  sem_post                                                        
0001754b  sl_Task                                                         
00017555  xdc_runtime_Memory_HeapProxy_alloc__E                           
0001755f  xdc_runtime_Memory_HeapProxy_free__E                            
00017569  MQTTClientCore_sendSubMsg                                       
00017571  MQTTNet_tcpSend                                                 
00017579  SemaphoreP_Params_init                                          
00017581  TimerGetCurrentTimestamp                                        
00017591  pthread_attr_setstacksize                                       
00017599  pthread_mutex_lock                                              
000175a9  sem_getvalue                                                    
000175b1  ti_sysbios_family_arm_m3_Hwi_doSwiRestore__I                    
000175b9  ti_sysbios_family_arm_m3_Hwi_startup__E                         
000175b9  ti_sysbios_hal_Hwi_HwiProxy_startup__E                          
000175b9  ti_sysbios_hal_Hwi_startup__E                                   
000175d9  ti_sysbios_family_arm_m3_Hwi_doTaskRestore__I                   
000175e1  HwiP_restore                                                    
000175e1  ti_sysbios_family_arm_m3_Hwi_restoreFxn__E                      
000175e1  ti_sysbios_hal_Hwi_HwiProxy_restore__E                          
000175e9  ti_sysbios_gates_GateHwi_leave__E                               
000175f1  ti_sysbios_heaps_HeapMem_isBlocking__E                          
000175f9  ti_sysbios_knl_Clock_stop__E                                    
00017601  ti_sysbios_knl_Queue_Instance_init__E                           
00017609  ti_sysbios_knl_Swi_startup__E                                   
00017611  xdc_runtime_System_Module_startup__E                            
00017619  __aeabi_errno_addr                                              
00017621  ti_sysbios_gates_GateHwi_query__E                               
00017621  xdc_runtime_Main_Module_GateProxy_query__E                      
00017621  xdc_runtime_System_Module_GateProxy_query__E                    
00017629  ti_sysbios_BIOS_RtsGateProxy_query__E                           
00017629  ti_sysbios_gates_GateMutex_query__E                             
00017629  ti_sysbios_heaps_HeapMem_Module_GateProxy_query__E              
00017631  ti_sysbios_knl_Clock_setTimeout__E                              
00017639  ti_sysbios_knl_Task_startup__E                                  
00017641  ti_sysbios_BIOS_linkedWithIncorrectBootLibrary__E               
00017649  ti_sysbios_gates_GateHwi_Instance_init__E                       
00017651  ti_sysbios_knl_Clock_logTick__E                                 
00017659  xdc_runtime_SysCallback_defaultAbort                            
00017661  xdc_runtime_SysCallback_defaultExit                             
00017669  xdc_runtime_System_abortSpin__E                                 
00017671  xdc_runtime_System_exitSpin__E                                  
00017674  _ctypes_                                                        
00017775  xdc_runtime_Error_policy__C                                     
00017776  OpcodeTranslateTable                                            
00017848  _SlActionLookupTable                                            
00017928  ti_sysbios_knl_Task_Object__PARAMS__C                           
00017964  PowerMSP432_config                                              
0001799c  ti_sysbios_knl_Mailbox_Object__PARAMS__C                        
00017a00  ti_sysbios_family_arm_m3_Hwi_Object__PARAMS__C                  
00017a5c  UARTMSP432_fxnTable                                             
00017a84  ti_sysbios_heaps_HeapMem_Module__FXNS__C                        
00017aac  UART_defaultParams                                              
00017ad0  spiMSP432DMAHWAttrs                                             
00017af4  ti_sysbios_gates_GateHwi_Module__FXNS__C                        
00017b18  ti_sysbios_gates_GateMutex_Module__FXNS__C                      
00017b3c  ti_sysbios_heaps_HeapMem_Object__PARAMS__C                      
00017b60  ti_sysbios_knl_Clock_Object__PARAMS__C                          
00017b84  ti_sysbios_knl_Semaphore_Object__PARAMS__C                      
00017ba8  xdc_runtime_Startup_sfxnTab__A                                  
00017bec  SPI_defaultParams                                               
00017c2c  TimerMSP432HWAttrs                                              
00017c4c  TimerMSP432_Timer32_fxnTable                                    
00017c8c  ti_sysbios_family_arm_m3_Hwi_Object__DESC__C                    
00017cac  ti_sysbios_gates_GateHwi_Object__DESC__C                        
00017ccc  ti_sysbios_gates_GateMutex_Object__DESC__C                      
00017cec  ti_sysbios_heaps_HeapMem_Object__DESC__C                        
00017d0c  ti_sysbios_knl_Clock_Object__DESC__C                            
00017d2c  ti_sysbios_knl_Mailbox_Object__DESC__C                          
00017d4c  ti_sysbios_knl_Queue_Object__DESC__C                            
00017d6c  ti_sysbios_knl_Semaphore_Object__DESC__C                        
00017d8c  ti_sysbios_knl_Task_Object__DESC__C                             
00017dac  SPIMSP432DMA_fxnTable                                           
00017dc4  Timer_config                                                    
00017ddc  ti_sysbios_gates_GateHwi_Object__PARAMS__C                      
00017df4  ti_sysbios_gates_GateMutex_Object__PARAMS__C                    
00017e0c  ti_sysbios_knl_Queue_Object__PARAMS__C                          
00017e24  ti_sysbios_knl_Task_hooks__A                                    
00017e7e  ti_sysbios_family_arm_m3_Hwi_Module__id__C                      
00017ee4  GPIOMSP432_config                                               
00017f0c  xdc_runtime_Startup_sfxnRts__A                                  
00017f1e  ti_sysbios_heaps_HeapMem_Module__id__C                          
00017f80  SPI_config                                                      
00017f8c  UART_config                                                     
00017fb0  udmaMSP432HWAttrs                                               
00017fbc  wifiSimplelinkHWAttrs                                           
00017fc8  xdc_runtime_Startup_firstFxns__A                                
00017fd4  UDMAMSP432_config                                               
00017ff4  heap0                                                           
00017ff8  tiposix_mqGate                                                  
00017ffc  ti_sysbios_knl_Idle_funcList__A                                 
00018004  ti_sysbios_knl_Idle_funcList__C                                 
0001800c  ti_sysbios_knl_Task_hooks__C                                    
00018014  xdc_runtime_Startup_firstFxns__C                                
0001801c  xdc_runtime_Startup_lastFxns__C                                 
00018030  Display_count                                                   
00018031  SPI_count                                                       
00018032  Timer_count                                                     
00018033  UART_count                                                      
00018034  Button_count                                                    
00018035  WiFi_count                                                      
00018058  WiFi_config                                                     
0001807c  _SlNetAppSendResponseCmdCtrl                                    
00018080  _SlNetAppSendTokenValueCmdCtrl                                  
000180b4  ti_sysbios_family_arm_m3_Hwi_E_alreadyDefined__C                
000180b8  ti_sysbios_family_arm_m3_Hwi_E_badIntNum__C                     
000180bc  ti_sysbios_family_arm_m3_Hwi_NUM_INTERRUPTS__C                  
000180c0  ti_sysbios_family_arm_m3_Hwi_Object__count__C                   
000180c4  ti_sysbios_family_arm_m3_Hwi_ccr__C                             
000180c8  ti_sysbios_family_arm_m3_Hwi_excHandlerFunc__C                  
000180cc  ti_sysbios_family_arm_m3_Hwi_nullIsrFunc__C                     
000180d0  ti_sysbios_family_arm_m3_Hwi_priGroup__C                        
000180d4  ti_sysbios_family_arm_m3_Hwi_swiDisable__C                      
000180d8  ti_sysbios_family_arm_m3_Hwi_swiRestore__C                      
000180dc  ti_sysbios_family_arm_m3_TaskSupport_stackAlignment__C          
000180e0  ti_sysbios_family_arm_msp432_Timer_numTimerDevices__C           
000180e4  ti_sysbios_family_arm_msp432_Timer_startupNeeded__C             
000180e8  ti_sysbios_gates_GateMutex_Instance_State_sem__O                
000180ec  ti_sysbios_heaps_HeapMem_E_memory__C                            
000180f0  ti_sysbios_heaps_HeapMem_Module__gateObj__C                     
000180f4  ti_sysbios_heaps_HeapMem_Object__count__C                       
000180f8  ti_sysbios_heaps_HeapMem_primaryHeapBaseAddr__C                 
000180fc  ti_sysbios_heaps_HeapMem_primaryHeapEndAddr__C                  
00018100  ti_sysbios_heaps_HeapMem_reqAlign__C                            
00018104  ti_sysbios_knl_Clock_Module_State_clockQ__O                     
00018108  ti_sysbios_knl_Clock_tickPeriod__C                              
0001810c  ti_sysbios_knl_Mailbox_Instance_State_dataQue__O                
00018110  ti_sysbios_knl_Mailbox_Instance_State_dataSem__O                
00018114  ti_sysbios_knl_Mailbox_Instance_State_freeQue__O                
00018118  ti_sysbios_knl_Mailbox_Instance_State_freeSem__O                
0001811c  ti_sysbios_knl_Mailbox_Object__count__C                         
00018120  ti_sysbios_knl_Mailbox_maxTypeAlign__C                          
00018124  ti_sysbios_knl_Semaphore_Instance_State_pendQ__O                
00018128  ti_sysbios_knl_Swi_Object__count__C                             
0001812c  ti_sysbios_knl_Task_Module_State_inactiveQ__O                   
00018130  ti_sysbios_knl_Task_Object__count__C                            
00018134  ti_sysbios_knl_Task_Object__heap__C                             
00018138  ti_sysbios_knl_Task_allBlockedFunc__C                           
0001813c  ti_sysbios_knl_Task_defaultStackHeap__C                         
00018140  ti_sysbios_knl_Task_defaultStackSize__C                         
00018144  ti_sysbios_knl_Task_numConstructedTasks__C                      
00018148  xdc_runtime_Error_E_memory__C                                   
0001814c  xdc_runtime_Error_policyFxn__C                                  
00018150  xdc_runtime_IGateProvider_Interface__BASE__C                    
00018154  xdc_runtime_IHeap_Interface__BASE__C                            
00018158  xdc_runtime_IModule_Interface__BASE__C                          
0001815c  xdc_runtime_Memory_defaultHeapInstance__C                       
00018160  xdc_runtime_Startup_execImpl__C                                 
00018164  xdc_runtime_Startup_maxPasses__C                                
00018168  xdc_runtime_Startup_sfxnRts__C                                  
0001816c  xdc_runtime_Startup_sfxnTab__C                                  
00018170  xdc_runtime_SysCallback_abortFxn__C                             
00018174  xdc_runtime_SysCallback_exitFxn__C                              
00018178  xdc_runtime_System_Module__gateObj__C                           
0001817c  xdc_runtime_System_abortFxn__C                                  
00018180  xdc_runtime_System_exitFxn__C                                   
00018184  xdc_runtime_System_maxAtexitHandlers__C                         
0001818e  xdc_runtime_Memory_Module__id__C                                
00018190  __TI_static_base__                                              
000184c4  __TI_Handler_Table_Base                                         
000184d0  __TI_Handler_Table_Limit                                        
000184d8  __TI_CINIT_Base                                                 
000184e8  __TI_CINIT_Limit                                                
20000000  __start___llvm_prf_cnts                                         
20000000  __stop___llvm_prf_cnts                                          
20000000  ti_sysbios_family_arm_m3_Hwi_ramVectors                         
20000140  __primary_heap_start__                                          
20008140  __primary_heap_end__                                            
20008a00  g_CB                                                            
20008dfc  clients                                                         
200090b0  ti_sysbios_knl_Task_Instance_State_0_stack__A                   
200092b0  ti_sysbios_family_arm_m3_Hwi_dispatchTable                      
200095d0  savedate                                                        
20009704  uartMSP432Objects                                               
20009784  timerMSP432Objects                                              
200097ec  msg_control                                                     
20009850  msg_info_data                                                   
200098fc  spiMSP432DMAObjects                                             
20009974  GlobalLockObj                                                   
200099a0  g_SlInternalSpawnCB                                             
200099c8  g_ucConnectionSSID                                              
20009a80  data_info                                                       
20009a94  MQTTClient_Lib_CB                                               
20009aa4  DeviceCB                                                        
20009ab0  Msg                                                             
20009abc  params1                                                         
20009ad0  g_ucConnectionBSSID                                             
20009ae4  ClockP_tickPeriod                                               
20009ae8  appQueue                                                        
20009aec  connected                                                       
20009af0  deinit                                                          
20009af4  mqttClientHandle                                                
20009af8  ti_sysbios_knl_Task_Instance_State_0_hookEnv__A                 
20009afc  timer0                                                          
20009b00  timer1                                                          
20009b04  MQTTClient_waitSecs                                             
20009b06  g_usConnectIndex                                                
20009b08  RxIrqCnt                                                        
20009b09  udmaMSP432Object                                                
20009b0c  PowerMSP432_perfLevels                                          
20009cd4  ti_sysbios_knl_Swi_Module_State_0_readyQ__A                     
20009d54  ti_sysbios_knl_Task_Module_State_0_readyQ__A                    
20009dd4  SlNetIfConfigWifi                                               
20009e2c  ti_sysbios_gates_GateMutex_Object__table__V                     
20009e80  ti_sysbios_knl_Task_Object__table__V                            
20009ecc  ti_sysbios_family_arm_msp432_Timer_Object__table__V             
20009f10  ti_sysbios_knl_Task_Module__state__V                            
20009f8c  ti_sysbios_family_arm_m3_Hwi_Module__state__V                   
20009fc0  ti_sysbios_knl_Swi_Object__table__V                             
20009ff0  PowerMSP432_module                                              
2000a01c  ti_sysbios_knl_Clock_Module__state__V                           
2000a048  MQTTClient_net                                                  
2000a070  g_LibsEvents                                                    
2000a094  g_UserEvents                                                    
2000a0b8  gpioCallbackFunctions                                           
2000a0dc  gpioPinConfigs                                                  
2000a100  ti_sysbios_BIOS_Module__state__V                                
2000a124  ti_sysbios_family_arm_msp432_Timer_Module_State_0_device__A     
2000a144  xdc_runtime_Error_IgnoreBlock                                   
2000a180  ti_sysbios_knl_Swi_Module__state__V                             
2000a19c  mqttClientParams                                                
2000a1b4  mqttConnParams                                                  
2000a1cc  ti_sysbios_family_arm_m3_Hwi_Object__table__V                   
2000a1e4  ti_sysbios_heaps_HeapMem_Object__table__V                       
2000a214  _tz                                                             
2000a234  ti_sysbios_family_arm_msp432_Timer_Module_State_0_handles__A    
2000a244  ClientId                                                        
2000a252  ti_sysbios_family_arm_m3_Hwi_Module_State_0_excActive__A        
2000a254  last                                                            
2000a258  now                                                             
2000a25c  counter                                                         
2000a260  mqttWillParams                                                  
2000a26c  g_ulStaIp                                                       
2000a270  g_ulGatewayIP                                                   
2000a274  g_ulStatus                                                      
2000a278  gGlobalLockCntRequested                                         
2000a279  gGlobalLockCntReleased                                          
2000a27a  g_SlDeviceStatus                                                
2000a27c  g_pCB                                                           
2000a280  pPingCallBackFunc                                               
2000a284  ti_sysbios_family_arm_msp432_ClockFreqs_Module__state__V        
2000a290  ti_sysbios_family_arm_msp432_Timer_Module__state__V             
2000a2a8  MQTTClient_closeContext                                         
2000a2ac  MQTTClient_clientContext                                        
2000a2b0  MQTTClient_multiSrvConn                                         
2000a2b4  _lock                                                           
2000a2b8  _unlock                                                         
2000a2bc  MQTTClient_clientCfg                                            
2000a2c4  mqttInitParams                                                  
2000a2cc  g_SpiFd                                                         
2000a2d0  g_Host_irq_Hndlr                                                
2000a2d4  ti_sysbios_family_arm_m3_Hwi_Module__root__V                    
2000a2dc  ti_sysbios_gates_GateHwi_Module__root__V                        
2000a2e4  ti_sysbios_gates_GateMutex_Module__root__V                      
2000a2ec  ti_sysbios_heaps_HeapMem_Module__root__V                        
2000a2f4  ti_sysbios_knl_Clock_Module__root__V                            
2000a2fc  ti_sysbios_knl_Mailbox_Module__root__V                          
2000a304  ti_sysbios_knl_Queue_Module__root__V                            
2000a30c  ti_sysbios_knl_Semaphore_Module__root__V                        
2000a314  ti_sysbios_knl_Task_Module__root__V                             
2000a31c  xdc_runtime_Startup_Module__state__V                            
2000a324  xdc_runtime_System_Module_State_0_atexitHandlers__A             
2000a32c  xdc_runtime_System_Module__state__V                             
2000a33c  MQTTClient_connectCfg                                           
2000a340  main_func_sp                                                    
2000a348  ti_sysbios_family_arm_m3_Hwi_Module_State_0_excContext__A       
2000a34c  ti_sysbios_family_arm_m3_Hwi_Module_State_0_excStack__A         
2000a350  ti_sysbios_gates_GateHwi_Object__table__V                       
2000a354  ti_sysbios_knl_Task_Module_State_0_idleTask__A                  
2000a358  ti_sysbios_rts_ti_ReentSupport_Module__state__V                 
2000a35c  xdc_runtime_Memory_Module__state__V                             
2003fc00  __stack                                                         
20040000  __STACK_END                                                     
4000480c  WDTCTL_SYM                                                      
e000e000  ti_sysbios_family_arm_m3_Hwi_nvic                               
ffffffff  __TI_pprof_out_hndl                                             
ffffffff  __TI_prof_data_size                                             
ffffffff  __TI_prof_data_start                                            
ffffffff  __binit__                                                       
ffffffff  __c_args__                                                      
ffffffff  binit                                                           
UNDEFED   SHT$$INIT_ARRAY$$Base                                           
UNDEFED   SHT$$INIT_ARRAY$$Limit                                          

[1009 symbols]
